   1               		.file	"nrk_eeprom.c"
   2               	__SP_H__ = 0x3e
   3               	__SP_L__ = 0x3d
   4               	__SREG__ = 0x3f
   5               	__RAMPZ__ = 0x3b
   6               	__tmp_reg__ = 0
   7               	__zero_reg__ = 1
  10               		.text
  11               	.Ltext0:
 309               	.global	nrk_eeprom_read_byte
 311               	nrk_eeprom_read_byte:
 312               		.stabd	46,0,0
   1:../../../src/platform/firefly3/source/nrk_eeprom.c **** #include <nrk_eeprom.h>
   2:../../../src/platform/firefly3/source/nrk_eeprom.c **** #include <avr/eeprom.h>
   3:../../../src/platform/firefly3/source/nrk_eeprom.c **** #include <nrk_error.h>
   4:../../../src/platform/firefly3/source/nrk_eeprom.c **** 
   5:../../../src/platform/firefly3/source/nrk_eeprom.c **** uint8_t nrk_eeprom_read_byte( uint16_t addr )
   6:../../../src/platform/firefly3/source/nrk_eeprom.c **** {
 314               	.LM0:
 315               	.LFBB1:
 316               	/* prologue: function */
 317               	/* frame size = 0 */
 318               	/* stack size = 0 */
 319               	.L__stack_usage = 0
   7:../../../src/platform/firefly3/source/nrk_eeprom.c **** uint8_t v;
   8:../../../src/platform/firefly3/source/nrk_eeprom.c **** v=eeprom_read_byte((uint8_t*)addr);
 321               	.LM1:
 322 0000 0C94 0000 		jmp __eerd_byte_m128rfa1
 324               	.Lscope1:
 326               		.stabd	78,0,0
 330               	.global	nrk_eeprom_write_byte
 332               	nrk_eeprom_write_byte:
 333               		.stabd	46,0,0
   9:../../../src/platform/firefly3/source/nrk_eeprom.c **** return v;
  10:../../../src/platform/firefly3/source/nrk_eeprom.c **** }
  11:../../../src/platform/firefly3/source/nrk_eeprom.c **** 
  12:../../../src/platform/firefly3/source/nrk_eeprom.c **** int8_t nrk_eeprom_write_byte( uint16_t addr, uint8_t value )
  13:../../../src/platform/firefly3/source/nrk_eeprom.c **** {
 335               	.LM2:
 336               	.LFBB2:
 337               	/* prologue: function */
 338               	/* frame size = 0 */
 339               	/* stack size = 0 */
 340               	.L__stack_usage = 0
  14:../../../src/platform/firefly3/source/nrk_eeprom.c **** eeprom_write_byte( (uint8_t*)addr, value );
 342               	.LM3:
 343 0004 0E94 0000 		call __eewr_byte_m128rfa1
  15:../../../src/platform/firefly3/source/nrk_eeprom.c **** }
 345               	.LM4:
 346 0008 0895      		ret
 348               	.Lscope2:
 350               		.stabd	78,0,0
 353               	.global	read_eeprom_mac_address
 355               	read_eeprom_mac_address:
 356               		.stabd	46,0,0
  16:../../../src/platform/firefly3/source/nrk_eeprom.c **** 
  17:../../../src/platform/firefly3/source/nrk_eeprom.c **** int8_t read_eeprom_mac_address(uint32_t *mac_addr)
  18:../../../src/platform/firefly3/source/nrk_eeprom.c **** {
 358               	.LM5:
 359               	.LFBB3:
 360 000a EF92      		push r14
 361 000c FF92      		push r15
 362 000e 0F93      		push r16
 363 0010 1F93      		push r17
 364 0012 CF93      		push r28
 365 0014 DF93      		push r29
 366               	/* prologue: function */
 367               	/* frame size = 0 */
 368               	/* stack size = 6 */
 369               	.L__stack_usage = 6
 370 0016 7C01      		movw r14,r24
  19:../../../src/platform/firefly3/source/nrk_eeprom.c **** uint8_t checksum,ct;
  20:../../../src/platform/firefly3/source/nrk_eeprom.c **** uint8_t *buf;
  21:../../../src/platform/firefly3/source/nrk_eeprom.c **** buf=(uint8_t *)mac_addr;
  22:../../../src/platform/firefly3/source/nrk_eeprom.c **** checksum=buf[0]+buf[1]+buf[2]+buf[3];
  23:../../../src/platform/firefly3/source/nrk_eeprom.c **** buf[3]=eeprom_read_byte ((uint8_t*)EE_MAC_ADDR_0);
 372               	.LM6:
 373 0018 80E0      		ldi r24,0
 374 001a 90E0      		ldi r25,0
 375 001c 0E94 0000 		call __eerd_byte_m128rfa1
 376 0020 182F      		mov r17,r24
 377 0022 F701      		movw r30,r14
 378 0024 8383      		std Z+3,r24
  24:../../../src/platform/firefly3/source/nrk_eeprom.c **** buf[2]=eeprom_read_byte ((uint8_t*)EE_MAC_ADDR_1);
 380               	.LM7:
 381 0026 81E0      		ldi r24,lo8(1)
 382 0028 90E0      		ldi r25,0
 383 002a 0E94 0000 		call __eerd_byte_m128rfa1
 384 002e 082F      		mov r16,r24
 385 0030 F701      		movw r30,r14
 386 0032 8283      		std Z+2,r24
  25:../../../src/platform/firefly3/source/nrk_eeprom.c **** buf[1]=eeprom_read_byte ((uint8_t*)EE_MAC_ADDR_2);
 388               	.LM8:
 389 0034 82E0      		ldi r24,lo8(2)
 390 0036 90E0      		ldi r25,0
 391 0038 0E94 0000 		call __eerd_byte_m128rfa1
 392 003c D82F      		mov r29,r24
 393 003e F701      		movw r30,r14
 394 0040 8183      		std Z+1,r24
  26:../../../src/platform/firefly3/source/nrk_eeprom.c **** buf[0]=eeprom_read_byte ((uint8_t*)EE_MAC_ADDR_3);
 396               	.LM9:
 397 0042 83E0      		ldi r24,lo8(3)
 398 0044 90E0      		ldi r25,0
 399 0046 0E94 0000 		call __eerd_byte_m128rfa1
 400 004a C82F      		mov r28,r24
 401 004c F701      		movw r30,r14
 402 004e 8083      		st Z,r24
  27:../../../src/platform/firefly3/source/nrk_eeprom.c **** checksum=eeprom_read_byte ((uint8_t*)EE_MAC_ADDR_CHKSUM);
 404               	.LM10:
 405 0050 84E0      		ldi r24,lo8(4)
 406 0052 90E0      		ldi r25,0
 407 0054 0E94 0000 		call __eerd_byte_m128rfa1
 408 0058 100F      		add r17,r16
 409 005a D10F      		add r29,r17
  28:../../../src/platform/firefly3/source/nrk_eeprom.c **** ct=buf[0];
  29:../../../src/platform/firefly3/source/nrk_eeprom.c **** ct+=buf[1];
  30:../../../src/platform/firefly3/source/nrk_eeprom.c **** ct+=buf[2];
  31:../../../src/platform/firefly3/source/nrk_eeprom.c **** ct+=buf[3];
 411               	.LM11:
 412 005c CD0F      		add r28,r29
  32:../../../src/platform/firefly3/source/nrk_eeprom.c **** if(checksum==ct) return NRK_OK;
 414               	.LM12:
 415 005e 8C17      		cp r24,r28
 416 0060 01F0      		breq .L5
  33:../../../src/platform/firefly3/source/nrk_eeprom.c **** 
  34:../../../src/platform/firefly3/source/nrk_eeprom.c **** return NRK_ERROR;
 418               	.LM13:
 419 0062 8FEF      		ldi r24,lo8(-1)
 420 0064 00C0      		rjmp .L4
 421               	.L5:
  32:../../../src/platform/firefly3/source/nrk_eeprom.c **** if(checksum==ct) return NRK_OK;
 423               	.LM14:
 424 0066 81E0      		ldi r24,lo8(1)
 425               	.L4:
 426               	/* epilogue start */
  35:../../../src/platform/firefly3/source/nrk_eeprom.c **** }
 428               	.LM15:
 429 0068 DF91      		pop r29
 430 006a CF91      		pop r28
 431 006c 1F91      		pop r17
 432 006e 0F91      		pop r16
 433 0070 FF90      		pop r15
 434 0072 EF90      		pop r14
 435 0074 0895      		ret
 437               	.Lscope3:
 439               		.stabd	78,0,0
 442               	.global	read_eeprom_channel
 444               	read_eeprom_channel:
 445               		.stabd	46,0,0
  36:../../../src/platform/firefly3/source/nrk_eeprom.c **** 
  37:../../../src/platform/firefly3/source/nrk_eeprom.c **** int8_t read_eeprom_channel(uint8_t *channel)
  38:../../../src/platform/firefly3/source/nrk_eeprom.c **** {
 447               	.LM16:
 448               	.LFBB4:
 449 0076 CF93      		push r28
 450 0078 DF93      		push r29
 451               	/* prologue: function */
 452               	/* frame size = 0 */
 453               	/* stack size = 2 */
 454               	.L__stack_usage = 2
 455 007a EC01      		movw r28,r24
  39:../../../src/platform/firefly3/source/nrk_eeprom.c ****   *channel=eeprom_read_byte ((uint8_t*)EE_CHANNEL);
 457               	.LM17:
 458 007c 85E0      		ldi r24,lo8(5)
 459 007e 90E0      		ldi r25,0
 460 0080 0E94 0000 		call __eerd_byte_m128rfa1
 461 0084 8883      		st Y,r24
  40:../../../src/platform/firefly3/source/nrk_eeprom.c **** return NRK_OK;
  41:../../../src/platform/firefly3/source/nrk_eeprom.c **** }
 463               	.LM18:
 464 0086 81E0      		ldi r24,lo8(1)
 465               	/* epilogue start */
 466 0088 DF91      		pop r29
 467 008a CF91      		pop r28
 468 008c 0895      		ret
 470               	.Lscope4:
 472               		.stabd	78,0,0
 475               	.global	write_eeprom_load_img_pages
 477               	write_eeprom_load_img_pages:
 478               		.stabd	46,0,0
  42:../../../src/platform/firefly3/source/nrk_eeprom.c **** 
  43:../../../src/platform/firefly3/source/nrk_eeprom.c **** int8_t write_eeprom_load_img_pages(uint8_t *load_pages)
  44:../../../src/platform/firefly3/source/nrk_eeprom.c **** {
 480               	.LM19:
 481               	.LFBB5:
 482               	/* prologue: function */
 483               	/* frame size = 0 */
 484               	/* stack size = 0 */
 485               	.L__stack_usage = 0
  45:../../../src/platform/firefly3/source/nrk_eeprom.c ****   eeprom_write_byte ((uint8_t*)EE_LOAD_IMG_PAGES, *load_pages);
 487               	.LM20:
 488 008e FC01      		movw r30,r24
 489 0090 6081      		ld r22,Z
 490 0092 86E0      		ldi r24,lo8(6)
 491 0094 90E0      		ldi r25,0
 492 0096 0E94 0000 		call __eewr_byte_m128rfa1
  46:../../../src/platform/firefly3/source/nrk_eeprom.c ****   return NRK_OK;
  47:../../../src/platform/firefly3/source/nrk_eeprom.c **** }
 494               	.LM21:
 495 009a 81E0      		ldi r24,lo8(1)
 496 009c 0895      		ret
 498               	.Lscope5:
 500               		.stabd	78,0,0
 503               	.global	read_eeprom_load_img_pages
 505               	read_eeprom_load_img_pages:
 506               		.stabd	46,0,0
  48:../../../src/platform/firefly3/source/nrk_eeprom.c **** 
  49:../../../src/platform/firefly3/source/nrk_eeprom.c **** int8_t read_eeprom_load_img_pages(uint8_t *load_pages)
  50:../../../src/platform/firefly3/source/nrk_eeprom.c **** {
 508               	.LM22:
 509               	.LFBB6:
 510 009e CF93      		push r28
 511 00a0 DF93      		push r29
 512               	/* prologue: function */
 513               	/* frame size = 0 */
 514               	/* stack size = 2 */
 515               	.L__stack_usage = 2
 516 00a2 EC01      		movw r28,r24
  51:../../../src/platform/firefly3/source/nrk_eeprom.c ****   *load_pages=eeprom_read_byte ((uint8_t*)EE_LOAD_IMG_PAGES);
 518               	.LM23:
 519 00a4 86E0      		ldi r24,lo8(6)
 520 00a6 90E0      		ldi r25,0
 521 00a8 0E94 0000 		call __eerd_byte_m128rfa1
 522 00ac 8883      		st Y,r24
  52:../../../src/platform/firefly3/source/nrk_eeprom.c ****   return NRK_OK;
  53:../../../src/platform/firefly3/source/nrk_eeprom.c **** }
 524               	.LM24:
 525 00ae 81E0      		ldi r24,lo8(1)
 526               	/* epilogue start */
 527 00b0 DF91      		pop r29
 528 00b2 CF91      		pop r28
 529 00b4 0895      		ret
 531               	.Lscope6:
 533               		.stabd	78,0,0
 536               	.global	read_eeprom_aes_key
 538               	read_eeprom_aes_key:
 539               		.stabd	46,0,0
  54:../../../src/platform/firefly3/source/nrk_eeprom.c **** 
  55:../../../src/platform/firefly3/source/nrk_eeprom.c **** int8_t read_eeprom_aes_key(uint8_t *aes_key)
  56:../../../src/platform/firefly3/source/nrk_eeprom.c **** {
 541               	.LM25:
 542               	.LFBB7:
 543 00b6 0F93      		push r16
 544 00b8 1F93      		push r17
 545 00ba CF93      		push r28
 546 00bc DF93      		push r29
 547               	/* prologue: function */
 548               	/* frame size = 0 */
 549               	/* stack size = 4 */
 550               	.L__stack_usage = 4
 551 00be 8C01      		movw r16,r24
 553               	.LM26:
 554 00c0 C0E0      		ldi r28,0
 555 00c2 D0E0      		ldi r29,0
 556               	.L11:
  57:../../../src/platform/firefly3/source/nrk_eeprom.c **** uint8_t i;
  58:../../../src/platform/firefly3/source/nrk_eeprom.c **** for(i=0; i<16; i++ )
  59:../../../src/platform/firefly3/source/nrk_eeprom.c ****   aes_key[i]=eeprom_read_byte ((uint8_t*)(EE_AES_KEY+i));
 558               	.LM27:
 559 00c4 CE01      		movw r24,r28
 560 00c6 0896      		adiw r24,8
 561 00c8 0E94 0000 		call __eerd_byte_m128rfa1
 562 00cc F801      		movw r30,r16
 563 00ce 8193      		st Z+,r24
 564 00d0 8F01      		movw r16,r30
 565 00d2 2196      		adiw r28,1
  58:../../../src/platform/firefly3/source/nrk_eeprom.c ****   aes_key[i]=eeprom_read_byte ((uint8_t*)(EE_AES_KEY+i));
 567               	.LM28:
 568 00d4 C031      		cpi r28,16
 569 00d6 D105      		cpc r29,__zero_reg__
 570 00d8 01F4      		brne .L11
  60:../../../src/platform/firefly3/source/nrk_eeprom.c ****   return NRK_OK;
  61:../../../src/platform/firefly3/source/nrk_eeprom.c **** }
 572               	.LM29:
 573 00da 81E0      		ldi r24,lo8(1)
 574               	/* epilogue start */
 575 00dc DF91      		pop r29
 576 00de CF91      		pop r28
 577 00e0 1F91      		pop r17
 578 00e2 0F91      		pop r16
 579 00e4 0895      		ret
 581               	.Lscope7:
 583               		.stabd	78,0,0
 586               	.global	write_eeprom_aes_key
 588               	write_eeprom_aes_key:
 589               		.stabd	46,0,0
  62:../../../src/platform/firefly3/source/nrk_eeprom.c **** 
  63:../../../src/platform/firefly3/source/nrk_eeprom.c **** int8_t write_eeprom_aes_key(uint8_t *aes_key)
  64:../../../src/platform/firefly3/source/nrk_eeprom.c **** {
 591               	.LM30:
 592               	.LFBB8:
 593 00e6 0F93      		push r16
 594 00e8 1F93      		push r17
 595 00ea CF93      		push r28
 596 00ec DF93      		push r29
 597               	/* prologue: function */
 598               	/* frame size = 0 */
 599               	/* stack size = 4 */
 600               	.L__stack_usage = 4
 601 00ee 8C01      		movw r16,r24
 603               	.LM31:
 604 00f0 C0E0      		ldi r28,0
 605 00f2 D0E0      		ldi r29,0
 606               	.L14:
  65:../../../src/platform/firefly3/source/nrk_eeprom.c **** uint8_t i;
  66:../../../src/platform/firefly3/source/nrk_eeprom.c **** for(i=0; i<16; i++ )
  67:../../../src/platform/firefly3/source/nrk_eeprom.c ****   eeprom_write_byte ((uint8_t*)(EE_AES_KEY+i),aes_key[i]);
 608               	.LM32:
 609 00f4 F801      		movw r30,r16
 610 00f6 6191      		ld r22,Z+
 611 00f8 8F01      		movw r16,r30
 612 00fa CE01      		movw r24,r28
 613 00fc 0896      		adiw r24,8
 614 00fe 0E94 0000 		call __eewr_byte_m128rfa1
 615 0102 2196      		adiw r28,1
  66:../../../src/platform/firefly3/source/nrk_eeprom.c ****   eeprom_write_byte ((uint8_t*)(EE_AES_KEY+i),aes_key[i]);
 617               	.LM33:
 618 0104 C031      		cpi r28,16
 619 0106 D105      		cpc r29,__zero_reg__
 620 0108 01F4      		brne .L14
  68:../../../src/platform/firefly3/source/nrk_eeprom.c ****   return NRK_OK;
  69:../../../src/platform/firefly3/source/nrk_eeprom.c **** }
 622               	.LM34:
 623 010a 81E0      		ldi r24,lo8(1)
 624               	/* epilogue start */
 625 010c DF91      		pop r29
 626 010e CF91      		pop r28
 627 0110 1F91      		pop r17
 628 0112 0F91      		pop r16
 629 0114 0895      		ret
 631               	.Lscope8:
 633               		.stabd	78,0,0
 636               	.global	read_eeprom_current_image_checksum
 638               	read_eeprom_current_image_checksum:
 639               		.stabd	46,0,0
  70:../../../src/platform/firefly3/source/nrk_eeprom.c **** 
  71:../../../src/platform/firefly3/source/nrk_eeprom.c **** int8_t read_eeprom_current_image_checksum(uint8_t *image_checksum)
  72:../../../src/platform/firefly3/source/nrk_eeprom.c **** {
 641               	.LM35:
 642               	.LFBB9:
 643 0116 CF93      		push r28
 644 0118 DF93      		push r29
 645               	/* prologue: function */
 646               	/* frame size = 0 */
 647               	/* stack size = 2 */
 648               	.L__stack_usage = 2
 649 011a EC01      		movw r28,r24
  73:../../../src/platform/firefly3/source/nrk_eeprom.c ****   *image_checksum=eeprom_read_byte ((uint8_t*)EE_CURRENT_IMAGE_CHECKSUM);
 651               	.LM36:
 652 011c 87E0      		ldi r24,lo8(7)
 653 011e 90E0      		ldi r25,0
 654 0120 0E94 0000 		call __eerd_byte_m128rfa1
 655 0124 8883      		st Y,r24
  74:../../../src/platform/firefly3/source/nrk_eeprom.c ****   return NRK_OK;
  75:../../../src/platform/firefly3/source/nrk_eeprom.c **** }
 657               	.LM37:
 658 0126 81E0      		ldi r24,lo8(1)
 659               	/* epilogue start */
 660 0128 DF91      		pop r29
 661 012a CF91      		pop r28
 662 012c 0895      		ret
 664               	.Lscope9:
 666               		.stabd	78,0,0
 669               	.global	write_eeprom_current_image_checksum
 671               	write_eeprom_current_image_checksum:
 672               		.stabd	46,0,0
  76:../../../src/platform/firefly3/source/nrk_eeprom.c **** 
  77:../../../src/platform/firefly3/source/nrk_eeprom.c **** int8_t write_eeprom_current_image_checksum(uint8_t *image_checksum)
  78:../../../src/platform/firefly3/source/nrk_eeprom.c **** {
 674               	.LM38:
 675               	.LFBB10:
 676               	/* prologue: function */
 677               	/* frame size = 0 */
 678               	/* stack size = 0 */
 679               	.L__stack_usage = 0
  79:../../../src/platform/firefly3/source/nrk_eeprom.c ****   eeprom_write_byte ((uint8_t*)EE_CURRENT_IMAGE_CHECKSUM, *image_checksum);
 681               	.LM39:
 682 012e FC01      		movw r30,r24
 683 0130 6081      		ld r22,Z
 684 0132 87E0      		ldi r24,lo8(7)
 685 0134 90E0      		ldi r25,0
 686 0136 0E94 0000 		call __eewr_byte_m128rfa1
  80:../../../src/platform/firefly3/source/nrk_eeprom.c ****   return NRK_OK;
  81:../../../src/platform/firefly3/source/nrk_eeprom.c **** }
 688               	.LM40:
 689 013a 81E0      		ldi r24,lo8(1)
 690 013c 0895      		ret
 692               	.Lscope10:
 694               		.stabd	78,0,0
 695               		.comm	error_num,1,1
 696               		.comm	error_task,1,1
 697               		.comm	_nrk_signal_list,4,1
 702               	.Letext0:
 703               		.ident	"GCC: (GNU) 4.9.1"
 704               	.global __do_clear_bss
DEFINED SYMBOLS
                            *ABS*:0000000000000000 nrk_eeprom.c
/var/folders/57/dy66zcf543x9s42pt1yfw30r0000gn/T//ccQ8yE35.s:2      *ABS*:000000000000003e __SP_H__
/var/folders/57/dy66zcf543x9s42pt1yfw30r0000gn/T//ccQ8yE35.s:3      *ABS*:000000000000003d __SP_L__
/var/folders/57/dy66zcf543x9s42pt1yfw30r0000gn/T//ccQ8yE35.s:4      *ABS*:000000000000003f __SREG__
/var/folders/57/dy66zcf543x9s42pt1yfw30r0000gn/T//ccQ8yE35.s:5      *ABS*:000000000000003b __RAMPZ__
/var/folders/57/dy66zcf543x9s42pt1yfw30r0000gn/T//ccQ8yE35.s:6      *ABS*:0000000000000000 __tmp_reg__
/var/folders/57/dy66zcf543x9s42pt1yfw30r0000gn/T//ccQ8yE35.s:7      *ABS*:0000000000000001 __zero_reg__
/var/folders/57/dy66zcf543x9s42pt1yfw30r0000gn/T//ccQ8yE35.s:311    .text:0000000000000000 nrk_eeprom_read_byte
/var/folders/57/dy66zcf543x9s42pt1yfw30r0000gn/T//ccQ8yE35.s:332    .text:0000000000000004 nrk_eeprom_write_byte
/var/folders/57/dy66zcf543x9s42pt1yfw30r0000gn/T//ccQ8yE35.s:355    .text:000000000000000a read_eeprom_mac_address
/var/folders/57/dy66zcf543x9s42pt1yfw30r0000gn/T//ccQ8yE35.s:444    .text:0000000000000076 read_eeprom_channel
/var/folders/57/dy66zcf543x9s42pt1yfw30r0000gn/T//ccQ8yE35.s:477    .text:000000000000008e write_eeprom_load_img_pages
/var/folders/57/dy66zcf543x9s42pt1yfw30r0000gn/T//ccQ8yE35.s:505    .text:000000000000009e read_eeprom_load_img_pages
/var/folders/57/dy66zcf543x9s42pt1yfw30r0000gn/T//ccQ8yE35.s:538    .text:00000000000000b6 read_eeprom_aes_key
/var/folders/57/dy66zcf543x9s42pt1yfw30r0000gn/T//ccQ8yE35.s:588    .text:00000000000000e6 write_eeprom_aes_key
/var/folders/57/dy66zcf543x9s42pt1yfw30r0000gn/T//ccQ8yE35.s:638    .text:0000000000000116 read_eeprom_current_image_checksum
/var/folders/57/dy66zcf543x9s42pt1yfw30r0000gn/T//ccQ8yE35.s:671    .text:000000000000012e write_eeprom_current_image_checksum
                            *COM*:0000000000000001 error_num
                            *COM*:0000000000000001 error_task
                            *COM*:0000000000000004 _nrk_signal_list

UNDEFINED SYMBOLS
__eerd_byte_m128rfa1
__eewr_byte_m128rfa1
__do_clear_bss
