   1               		.file	"nrk_error.c"
   2               	__SP_H__ = 0x3e
   3               	__SP_L__ = 0x3d
   4               	__SREG__ = 0x3f
   5               	__RAMPZ__ = 0x3b
   6               	__tmp_reg__ = 0
   7               	__zero_reg__ = 1
  10               		.text
  11               	.Ltext0:
 321               	.global	_nrk_errno_set
 323               	_nrk_errno_set:
 324               		.stabd	46,0,0
   1:../../../src/kernel/source/nrk_error.c **** /******************************************************************************
   2:../../../src/kernel/source/nrk_error.c **** *  Nano-RK, a real-time operating system for sensor networks.
   3:../../../src/kernel/source/nrk_error.c **** *  Copyright (C) 2007, Real-Time and Multimedia Lab, Carnegie Mellon University
   4:../../../src/kernel/source/nrk_error.c **** *  All rights reserved.
   5:../../../src/kernel/source/nrk_error.c **** *
   6:../../../src/kernel/source/nrk_error.c **** *  This is the Open Source Version of Nano-RK included as part of a Dual
   7:../../../src/kernel/source/nrk_error.c **** *  Licensing Model. If you are unsure which license to use please refer to:
   8:../../../src/kernel/source/nrk_error.c **** *  http://www.nanork.org/nano-RK/wiki/Licensing
   9:../../../src/kernel/source/nrk_error.c **** *
  10:../../../src/kernel/source/nrk_error.c **** *  This program is free software: you can redistribute it and/or modify
  11:../../../src/kernel/source/nrk_error.c **** *  it under the terms of the GNU General Public License as published by
  12:../../../src/kernel/source/nrk_error.c **** *  the Free Software Foundation, version 2.0 of the License.
  13:../../../src/kernel/source/nrk_error.c **** *
  14:../../../src/kernel/source/nrk_error.c **** *  This program is distributed in the hope that it will be useful,
  15:../../../src/kernel/source/nrk_error.c **** *  but WITHOUT ANY WARRANTY; without even the implied warranty of
  16:../../../src/kernel/source/nrk_error.c **** *  MERCHANTABILITY or FITNESS FOR A PARTICULAR PURPOSE.  See the
  17:../../../src/kernel/source/nrk_error.c **** *  GNU General Public License for more details.
  18:../../../src/kernel/source/nrk_error.c **** *
  19:../../../src/kernel/source/nrk_error.c **** *  You should have received a copy of the GNU General Public License
  20:../../../src/kernel/source/nrk_error.c **** *  along with this program.  If not, see <http://www.gnu.org/licenses/>.
  21:../../../src/kernel/source/nrk_error.c **** *
  22:../../../src/kernel/source/nrk_error.c **** *  Contributing Authors (specific to this file):
  23:../../../src/kernel/source/nrk_error.c **** *  Anthony Rowe
  24:../../../src/kernel/source/nrk_error.c **** *  Zane Starr
  25:../../../src/kernel/source/nrk_error.c **** *  Anand Eswaren
  26:../../../src/kernel/source/nrk_error.c **** *******************************************************************************/
  27:../../../src/kernel/source/nrk_error.c **** 
  28:../../../src/kernel/source/nrk_error.c **** #include <nrk_error.h>
  29:../../../src/kernel/source/nrk_error.c **** #include <stdio.h>
  30:../../../src/kernel/source/nrk_error.c **** #include <nrk.h>
  31:../../../src/kernel/source/nrk_error.c **** #include <nrk_task.h>
  32:../../../src/kernel/source/nrk_error.c **** #include <nrk_cfg.h>
  33:../../../src/kernel/source/nrk_error.c **** #include <nrk_timer.h>
  34:../../../src/kernel/source/nrk_error.c **** #ifdef NRK_LOG_ERRORS
  35:../../../src/kernel/source/nrk_error.c **** #include <nrk_eeprom.h>
  36:../../../src/kernel/source/nrk_error.c **** #include <nrk_watchdog.h>
  37:../../../src/kernel/source/nrk_error.c **** static uint8_t error_cnt;
  38:../../../src/kernel/source/nrk_error.c **** #endif
  39:../../../src/kernel/source/nrk_error.c **** 
  40:../../../src/kernel/source/nrk_error.c **** void pause();
  41:../../../src/kernel/source/nrk_error.c **** void blink_morse_code_error( uint8_t number );
  42:../../../src/kernel/source/nrk_error.c **** 
  43:../../../src/kernel/source/nrk_error.c **** 
  44:../../../src/kernel/source/nrk_error.c **** void _nrk_errno_set (NRK_ERRNO error_code)
  45:../../../src/kernel/source/nrk_error.c **** {
 326               	.LM0:
 327               	.LFBB1:
 328               	/* prologue: function */
 329               	/* frame size = 0 */
 330               	/* stack size = 0 */
 331               	.L__stack_usage = 0
  46:../../../src/kernel/source/nrk_error.c ****     nrk_cur_task_TCB->errno = error_code;
 333               	.LM1:
 334 0000 E091 0000 		lds r30,nrk_cur_task_TCB
 335 0004 F091 0000 		lds r31,nrk_cur_task_TCB+1
 336 0008 8487      		std Z+12,r24
 337 000a 0895      		ret
 339               	.Lscope1:
 341               		.stabd	78,0,0
 343               	.global	nrk_errno_get
 345               	nrk_errno_get:
 346               		.stabd	46,0,0
  47:../../../src/kernel/source/nrk_error.c **** }
  48:../../../src/kernel/source/nrk_error.c **** 
  49:../../../src/kernel/source/nrk_error.c **** uint8_t nrk_errno_get ()
  50:../../../src/kernel/source/nrk_error.c **** {
 348               	.LM2:
 349               	.LFBB2:
 350               	/* prologue: function */
 351               	/* frame size = 0 */
 352               	/* stack size = 0 */
 353               	.L__stack_usage = 0
  51:../../../src/kernel/source/nrk_error.c ****     return nrk_cur_task_TCB->errno;
 355               	.LM3:
 356 000c E091 0000 		lds r30,nrk_cur_task_TCB
 357 0010 F091 0000 		lds r31,nrk_cur_task_TCB+1
  52:../../../src/kernel/source/nrk_error.c **** }
 359               	.LM4:
 360 0014 8485      		ldd r24,Z+12
 361 0016 0895      		ret
 363               	.Lscope2:
 365               		.stabd	78,0,0
 369               	.global	nrk_error_get
 371               	nrk_error_get:
 372               		.stabd	46,0,0
  53:../../../src/kernel/source/nrk_error.c **** 
  54:../../../src/kernel/source/nrk_error.c **** #ifdef NRK_LOG_ERRORS
  55:../../../src/kernel/source/nrk_error.c **** void _nrk_log_error(uint8_t error_num, uint8_t error_task)
  56:../../../src/kernel/source/nrk_error.c **** {
  57:../../../src/kernel/source/nrk_error.c **** 
  58:../../../src/kernel/source/nrk_error.c ****     // 1) Load error cnt and add 1
  59:../../../src/kernel/source/nrk_error.c ****     error_cnt=nrk_eeprom_read_byte(NRK_ERROR_EEPROM_INDEX);
  60:../../../src/kernel/source/nrk_error.c ****     error_cnt++;
  61:../../../src/kernel/source/nrk_error.c ****     if(error_cnt==255) error_cnt=0;
  62:../../../src/kernel/source/nrk_error.c ****     // 2) write error
  63:../../../src/kernel/source/nrk_error.c ****     nrk_eeprom_write_byte(NRK_ERROR_EEPROM_INDEX+1+((uint16_t)error_cnt*6),error_num);
  64:../../../src/kernel/source/nrk_error.c ****     nrk_eeprom_write_byte(NRK_ERROR_EEPROM_INDEX+1+((uint16_t)error_cnt*6+1),error_task);
  65:../../../src/kernel/source/nrk_error.c ****     nrk_eeprom_write_byte(NRK_ERROR_EEPROM_INDEX+1+((uint16_t)error_cnt*6+2),(nrk_system_time.secs>
  66:../../../src/kernel/source/nrk_error.c ****     nrk_eeprom_write_byte(NRK_ERROR_EEPROM_INDEX+1+((uint16_t)error_cnt*6+3),(nrk_system_time.secs>
  67:../../../src/kernel/source/nrk_error.c ****     nrk_eeprom_write_byte(NRK_ERROR_EEPROM_INDEX+1+((uint16_t)error_cnt*6+4),(nrk_system_time.secs>
  68:../../../src/kernel/source/nrk_error.c ****     nrk_eeprom_write_byte(NRK_ERROR_EEPROM_INDEX+1+((uint16_t)error_cnt*6+5),(nrk_system_time.secs)
  69:../../../src/kernel/source/nrk_error.c ****     // 3) write error cnt back
  70:../../../src/kernel/source/nrk_error.c ****     nrk_eeprom_write_byte(NRK_ERROR_EEPROM_INDEX,error_cnt);
  71:../../../src/kernel/source/nrk_error.c **** }
  72:../../../src/kernel/source/nrk_error.c **** #endif
  73:../../../src/kernel/source/nrk_error.c **** 
  74:../../../src/kernel/source/nrk_error.c **** void nrk_error_add (uint8_t n)
  75:../../../src/kernel/source/nrk_error.c **** {
  76:../../../src/kernel/source/nrk_error.c ****     error_num = n;
  77:../../../src/kernel/source/nrk_error.c ****     error_task = nrk_cur_task_TCB->task_ID;
  78:../../../src/kernel/source/nrk_error.c **** 
  79:../../../src/kernel/source/nrk_error.c **** #ifdef NRK_LOG_ERRORS
  80:../../../src/kernel/source/nrk_error.c ****     _nrk_log_error(error_num, error_task);
  81:../../../src/kernel/source/nrk_error.c **** #endif
  82:../../../src/kernel/source/nrk_error.c **** 
  83:../../../src/kernel/source/nrk_error.c **** #ifdef NRK_REPORT_ERRORS
  84:../../../src/kernel/source/nrk_error.c ****     nrk_error_print ();
  85:../../../src/kernel/source/nrk_error.c **** #endif  /*  */
  86:../../../src/kernel/source/nrk_error.c **** }
  87:../../../src/kernel/source/nrk_error.c **** 
  88:../../../src/kernel/source/nrk_error.c **** void nrk_kernel_error_add (uint8_t n, uint8_t task)
  89:../../../src/kernel/source/nrk_error.c **** {
  90:../../../src/kernel/source/nrk_error.c ****     error_num = n;
  91:../../../src/kernel/source/nrk_error.c ****     error_task = task;
  92:../../../src/kernel/source/nrk_error.c **** 
  93:../../../src/kernel/source/nrk_error.c **** #ifdef NRK_LOG_ERRORS
  94:../../../src/kernel/source/nrk_error.c ****     _nrk_log_error(error_num, error_task);
  95:../../../src/kernel/source/nrk_error.c **** #endif
  96:../../../src/kernel/source/nrk_error.c **** 
  97:../../../src/kernel/source/nrk_error.c **** #ifdef NRK_REPORT_ERRORS
  98:../../../src/kernel/source/nrk_error.c ****     nrk_error_print ();
  99:../../../src/kernel/source/nrk_error.c **** 
 100:../../../src/kernel/source/nrk_error.c **** #endif  /*  */
 101:../../../src/kernel/source/nrk_error.c **** 
 102:../../../src/kernel/source/nrk_error.c **** #ifdef NRK_SOFT_REBOOT_ON_ERROR
 103:../../../src/kernel/source/nrk_error.c **** #ifdef NRK_WATCHDOG
 104:../../../src/kernel/source/nrk_error.c ****     nrk_watchdog_disable();
 105:../../../src/kernel/source/nrk_error.c **** #endif
 106:../../../src/kernel/source/nrk_error.c ****     asm volatile("jmp 0x0000\n\t" ::);
 107:../../../src/kernel/source/nrk_error.c **** #endif
 108:../../../src/kernel/source/nrk_error.c **** 
 109:../../../src/kernel/source/nrk_error.c **** #ifdef NRK_REBOOT_ON_ERROR
 110:../../../src/kernel/source/nrk_error.c ****     // wait for watchdog to kick in
 111:../../../src/kernel/source/nrk_error.c ****     if(n!=NRK_WATCHDOG_ERROR && n!=NRK_BOD_ERROR && n!=NRK_EXT_RST_ERROR)
 112:../../../src/kernel/source/nrk_error.c ****     {
 113:../../../src/kernel/source/nrk_error.c ****         nrk_watchdog_enable();
 114:../../../src/kernel/source/nrk_error.c ****         nrk_int_disable();
 115:../../../src/kernel/source/nrk_error.c ****         while(1);
 116:../../../src/kernel/source/nrk_error.c ****     }
 117:../../../src/kernel/source/nrk_error.c **** #endif
 118:../../../src/kernel/source/nrk_error.c **** 
 119:../../../src/kernel/source/nrk_error.c **** #ifdef NRK_HALT_ON_ERROR
 120:../../../src/kernel/source/nrk_error.c ****     uint8_t t;
 121:../../../src/kernel/source/nrk_error.c ****     uint8_t i;
 122:../../../src/kernel/source/nrk_error.c **** 
 123:../../../src/kernel/source/nrk_error.c ****     while (1)
 124:../../../src/kernel/source/nrk_error.c ****     {
 125:../../../src/kernel/source/nrk_error.c ****         for(i=0; i<20; i++ )
 126:../../../src/kernel/source/nrk_error.c ****         {
 127:../../../src/kernel/source/nrk_error.c ****             nrk_led_set (2);
 128:../../../src/kernel/source/nrk_error.c ****             nrk_led_clr (3);
 129:../../../src/kernel/source/nrk_error.c ****             for (t = 0; t < 100; t++)
 130:../../../src/kernel/source/nrk_error.c ****                 nrk_spin_wait_us (1000);
 131:../../../src/kernel/source/nrk_error.c ****             nrk_led_set (3);
 132:../../../src/kernel/source/nrk_error.c ****             nrk_led_clr (2);
 133:../../../src/kernel/source/nrk_error.c ****             for (t = 0; t < 100; t++)
 134:../../../src/kernel/source/nrk_error.c ****                 nrk_spin_wait_us (1000);
 135:../../../src/kernel/source/nrk_error.c ****         }
 136:../../../src/kernel/source/nrk_error.c ****         nrk_led_clr (3);
 137:../../../src/kernel/source/nrk_error.c ****         nrk_led_clr (2);
 138:../../../src/kernel/source/nrk_error.c ****         blink_morse_code_error( task );
 139:../../../src/kernel/source/nrk_error.c ****         blink_morse_code_error( n );
 140:../../../src/kernel/source/nrk_error.c ****     }
 141:../../../src/kernel/source/nrk_error.c **** 
 142:../../../src/kernel/source/nrk_error.c **** #endif  /*  */
 143:../../../src/kernel/source/nrk_error.c **** 
 144:../../../src/kernel/source/nrk_error.c **** 
 145:../../../src/kernel/source/nrk_error.c **** 
 146:../../../src/kernel/source/nrk_error.c **** 
 147:../../../src/kernel/source/nrk_error.c **** }
 148:../../../src/kernel/source/nrk_error.c **** 
 149:../../../src/kernel/source/nrk_error.c **** 
 150:../../../src/kernel/source/nrk_error.c **** uint8_t nrk_error_get (uint8_t * task_id, uint8_t * code)
 151:../../../src/kernel/source/nrk_error.c **** {
 374               	.LM5:
 375               	.LFBB3:
 376               	/* prologue: function */
 377               	/* frame size = 0 */
 378               	/* stack size = 0 */
 379               	.L__stack_usage = 0
 380 0018 FC01      		movw r30,r24
 152:../../../src/kernel/source/nrk_error.c ****     if (error_num == 0)
 382               	.LM6:
 383 001a 8091 0000 		lds r24,error_num
 384 001e 8823      		tst r24
 385 0020 01F0      		breq .L4
 153:../../../src/kernel/source/nrk_error.c ****         return 0;
 154:../../../src/kernel/source/nrk_error.c ****     *code = error_num;
 387               	.LM7:
 388 0022 DB01      		movw r26,r22
 389 0024 8C93      		st X,r24
 155:../../../src/kernel/source/nrk_error.c ****     *task_id = error_task;
 391               	.LM8:
 392 0026 8091 0000 		lds r24,error_task
 393 002a 8083      		st Z,r24
 156:../../../src/kernel/source/nrk_error.c ****     return 1;
 395               	.LM9:
 396 002c 81E0      		ldi r24,lo8(1)
 397               	.L4:
 157:../../../src/kernel/source/nrk_error.c **** }
 399               	.LM10:
 400 002e 0895      		ret
 402               	.Lscope3:
 404               		.stabd	78,0,0
 405               		.section	.rodata.str1.1,"aMS",@progbits,1
 406               	.LC0:
 407 0000 2564 00   		.string	"%d"
 408               		.text
 410               	.global	nrk_error_print
 412               	nrk_error_print:
 413               		.stabd	46,0,0
 158:../../../src/kernel/source/nrk_error.c **** 
 159:../../../src/kernel/source/nrk_error.c **** int8_t nrk_error_print ()
 160:../../../src/kernel/source/nrk_error.c **** {
 415               	.LM11:
 416               	.LFBB4:
 417               	/* prologue: function */
 418               	/* frame size = 0 */
 419               	/* stack size = 0 */
 420               	.L__stack_usage = 0
 161:../../../src/kernel/source/nrk_error.c ****     int8_t t=0,i=0;
 162:../../../src/kernel/source/nrk_error.c ****     if (error_num == 0)
 422               	.LM12:
 423 0030 8091 0000 		lds r24,error_num
 424 0034 8823      		tst r24
 425 0036 01F4      		brne .+2
 426 0038 00C0      		rjmp .L10
 427               	.LBB54:
 428               	.LBB55:
 163:../../../src/kernel/source/nrk_error.c ****         return 0;
 164:../../../src/kernel/source/nrk_error.c **** 
 165:../../../src/kernel/source/nrk_error.c **** #ifdef NRK_HALT_ON_ERROR
 166:../../../src/kernel/source/nrk_error.c ****     nrk_int_disable ();
 167:../../../src/kernel/source/nrk_error.c **** #ifdef NRK_WATCHDOG
 168:../../../src/kernel/source/nrk_error.c ****     nrk_watchdog_disable();
 169:../../../src/kernel/source/nrk_error.c **** #endif
 170:../../../src/kernel/source/nrk_error.c **** #endif
 171:../../../src/kernel/source/nrk_error.c **** 
 172:../../../src/kernel/source/nrk_error.c **** #ifndef NRK_REBOOT_ON_ERROR
 173:../../../src/kernel/source/nrk_error.c ****     nrk_int_disable ();
 430               	.LM13:
 431 003a 0E94 0000 		call nrk_int_disable
 174:../../../src/kernel/source/nrk_error.c **** #endif
 175:../../../src/kernel/source/nrk_error.c **** 
 176:../../../src/kernel/source/nrk_error.c **** 
 177:../../../src/kernel/source/nrk_error.c **** #ifdef NRK_HALT_AND_LOOP_ON_ERROR
 178:../../../src/kernel/source/nrk_error.c ****     nrk_int_disable ();
 179:../../../src/kernel/source/nrk_error.c **** #ifdef NRK_WATCHDOG
 180:../../../src/kernel/source/nrk_error.c ****     nrk_watchdog_disable();
 181:../../../src/kernel/source/nrk_error.c **** #endif
 182:../../../src/kernel/source/nrk_error.c **** 
 183:../../../src/kernel/source/nrk_error.c **** 
 184:../../../src/kernel/source/nrk_error.c ****     while (1)
 185:../../../src/kernel/source/nrk_error.c ****     {
 186:../../../src/kernel/source/nrk_error.c **** 
 187:../../../src/kernel/source/nrk_error.c **** #endif
 188:../../../src/kernel/source/nrk_error.c **** 
 189:../../../src/kernel/source/nrk_error.c ****         nrk_kprintf (PSTR ("*NRK ERROR("));
 433               	.LM14:
 434 003e 80E0      		ldi r24,lo8(__c.3309)
 435 0040 90E0      		ldi r25,hi8(__c.3309)
 436 0042 0E94 0000 		call nrk_kprintf
 190:../../../src/kernel/source/nrk_error.c ****         printf ("%d", error_task);
 438               	.LM15:
 439 0046 8091 0000 		lds r24,error_task
 440 004a 1F92      		push __zero_reg__
 441 004c 8F93      		push r24
 442 004e 80E0      		ldi r24,lo8(.LC0)
 443 0050 90E0      		ldi r25,hi8(.LC0)
 444 0052 9F93      		push r25
 445 0054 8F93      		push r24
 446 0056 0E94 0000 		call printf
 191:../../../src/kernel/source/nrk_error.c ****         nrk_kprintf (PSTR ("): "));
 448               	.LM16:
 449 005a 80E0      		ldi r24,lo8(__c.3311)
 450 005c 90E0      		ldi r25,hi8(__c.3311)
 451 005e 0E94 0000 		call nrk_kprintf
 192:../../../src/kernel/source/nrk_error.c ****         if (error_num > NRK_NUM_ERRORS)
 453               	.LM17:
 454 0062 0F90      		pop __tmp_reg__
 455 0064 0F90      		pop __tmp_reg__
 456 0066 0F90      		pop __tmp_reg__
 457 0068 0F90      		pop __tmp_reg__
 458 006a 8091 0000 		lds r24,error_num
 459 006e 8831      		cpi r24,lo8(24)
 460 0070 00F0      		brlo .L11
 193:../../../src/kernel/source/nrk_error.c ****             error_num = NRK_UNKOWN;
 462               	.LM18:
 463 0072 1092 0000 		sts error_num,__zero_reg__
 464               	.L11:
 194:../../../src/kernel/source/nrk_error.c ****         switch (error_num)
 466               	.LM19:
 467 0076 E091 0000 		lds r30,error_num
 468 007a 8E2F      		mov r24,r30
 469 007c 90E0      		ldi r25,0
 470 007e FC01      		movw r30,r24
 471 0080 3197      		sbiw r30,1
 472 0082 E631      		cpi r30,22
 473 0084 F105      		cpc r31,__zero_reg__
 474 0086 00F0      		brlo .+2
 475 0088 00C0      		rjmp .L12
 476 008a E050      		subi r30,lo8(-(gs(.L14)))
 477 008c F040      		sbci r31,hi8(-(gs(.L14)))
 478 008e 0C94 0000 		jmp __tablejump2__
 479               		.section	.progmem.gcc_sw_table,"a",@progbits
 480               		.p2align	1
 481               	.L14:
 482 0000 0000      		.word gs(.L13)
 483 0002 0000      		.word gs(.L15)
 484 0004 0000      		.word gs(.L16)
 485 0006 0000      		.word gs(.L17)
 486 0008 0000      		.word gs(.L18)
 487 000a 0000      		.word gs(.L19)
 488 000c 0000      		.word gs(.L20)
 489 000e 0000      		.word gs(.L21)
 490 0010 0000      		.word gs(.L22)
 491 0012 0000      		.word gs(.L23)
 492 0014 0000      		.word gs(.L24)
 493 0016 0000      		.word gs(.L25)
 494 0018 0000      		.word gs(.L26)
 495 001a 0000      		.word gs(.L27)
 496 001c 0000      		.word gs(.L28)
 497 001e 0000      		.word gs(.L29)
 498 0020 0000      		.word gs(.L30)
 499 0022 0000      		.word gs(.L31)
 500 0024 0000      		.word gs(.L32)
 501 0026 0000      		.word gs(.L33)
 502 0028 0000      		.word gs(.L34)
 503 002a 0000      		.word gs(.L35)
 504               		.text
 505               	.L35:
 195:../../../src/kernel/source/nrk_error.c ****         {
 196:../../../src/kernel/source/nrk_error.c ****         case NRK_PERIOD_OVERFLOW:
 197:../../../src/kernel/source/nrk_error.c ****             nrk_kprintf (PSTR ("Task period too large. Period must be less than 61 seconds."));
 507               	.LM20:
 508 0092 80E0      		ldi r24,lo8(__c.3314)
 509 0094 90E0      		ldi r25,hi8(__c.3314)
 510 0096 00C0      		rjmp .L40
 511               	.L30:
 198:../../../src/kernel/source/nrk_error.c ****             break;
 199:../../../src/kernel/source/nrk_error.c ****         case NRK_STACK_TOO_SMALL:
 200:../../../src/kernel/source/nrk_error.c ****             nrk_kprintf (PSTR ("Stack was not defined as large enough!"));
 513               	.LM21:
 514 0098 80E0      		ldi r24,lo8(__c.3318)
 515 009a 90E0      		ldi r25,hi8(__c.3318)
 516 009c 00C0      		rjmp .L40
 517               	.L13:
 201:../../../src/kernel/source/nrk_error.c ****             break;
 202:../../../src/kernel/source/nrk_error.c ****         case NRK_STACK_OVERFLOW:
 203:../../../src/kernel/source/nrk_error.c ****             nrk_kprintf (PSTR ("Task Stack Overflow"));
 519               	.LM22:
 520 009e 80E0      		ldi r24,lo8(__c.3321)
 521 00a0 90E0      		ldi r25,hi8(__c.3321)
 522 00a2 00C0      		rjmp .L40
 523               	.L31:
 204:../../../src/kernel/source/nrk_error.c ****             break;
 205:../../../src/kernel/source/nrk_error.c ****         case NRK_INVALID_STACK_POINTER:
 206:../../../src/kernel/source/nrk_error.c ****             nrk_kprintf (PSTR ("Invalid Stack Pointer"));
 525               	.LM23:
 526 00a4 80E0      		ldi r24,lo8(__c.3324)
 527 00a6 90E0      		ldi r25,hi8(__c.3324)
 528 00a8 00C0      		rjmp .L40
 529               	.L15:
 207:../../../src/kernel/source/nrk_error.c ****             break;
 208:../../../src/kernel/source/nrk_error.c ****         case NRK_RESERVE_ERROR:
 209:../../../src/kernel/source/nrk_error.c ****             nrk_kprintf (PSTR ("Reserve Error in Scheduler"));
 531               	.LM24:
 532 00aa 80E0      		ldi r24,lo8(__c.3327)
 533 00ac 90E0      		ldi r25,hi8(__c.3327)
 534 00ae 00C0      		rjmp .L40
 535               	.L16:
 210:../../../src/kernel/source/nrk_error.c ****             break;
 211:../../../src/kernel/source/nrk_error.c ****         case NRK_RESERVE_VIOLATED:
 212:../../../src/kernel/source/nrk_error.c ****             nrk_kprintf (PSTR ("Task Reserve Violated"));
 537               	.LM25:
 538 00b0 80E0      		ldi r24,lo8(__c.3330)
 539 00b2 90E0      		ldi r25,hi8(__c.3330)
 540 00b4 00C0      		rjmp .L40
 541               	.L17:
 213:../../../src/kernel/source/nrk_error.c ****             break;
 214:../../../src/kernel/source/nrk_error.c ****         case NRK_WAKEUP_MISSED:
 215:../../../src/kernel/source/nrk_error.c ****             nrk_kprintf (PSTR ("Scheduler Missed Wakeup"));
 543               	.LM26:
 544 00b6 80E0      		ldi r24,lo8(__c.3333)
 545 00b8 90E0      		ldi r25,hi8(__c.3333)
 546 00ba 00C0      		rjmp .L40
 547               	.L18:
 216:../../../src/kernel/source/nrk_error.c ****             break;
 217:../../../src/kernel/source/nrk_error.c ****         case NRK_DUP_TASK_ID:
 218:../../../src/kernel/source/nrk_error.c ****             nrk_kprintf (PSTR ("Duplicated Task ID"));
 549               	.LM27:
 550 00bc 80E0      		ldi r24,lo8(__c.3336)
 551 00be 90E0      		ldi r25,hi8(__c.3336)
 552 00c0 00C0      		rjmp .L40
 553               	.L19:
 219:../../../src/kernel/source/nrk_error.c ****             break;
 220:../../../src/kernel/source/nrk_error.c ****         case NRK_BAD_STARTUP:
 221:../../../src/kernel/source/nrk_error.c ****             nrk_kprintf (PSTR ("Unexpected Restart"));
 555               	.LM28:
 556 00c2 80E0      		ldi r24,lo8(__c.3339)
 557 00c4 90E0      		ldi r25,hi8(__c.3339)
 558 00c6 00C0      		rjmp .L40
 559               	.L21:
 222:../../../src/kernel/source/nrk_error.c ****             break;
 223:../../../src/kernel/source/nrk_error.c ****         case NRK_STACK_SMASH:
 224:../../../src/kernel/source/nrk_error.c ****             nrk_kprintf (PSTR ("Idle or Kernel Stack Overflow"));
 561               	.LM29:
 562 00c8 80E0      		ldi r24,lo8(__c.3342)
 563 00ca 90E0      		ldi r25,hi8(__c.3342)
 564 00cc 00C0      		rjmp .L40
 565               	.L20:
 225:../../../src/kernel/source/nrk_error.c ****             break;
 226:../../../src/kernel/source/nrk_error.c ****         case NRK_EXTRA_TASK:
 227:../../../src/kernel/source/nrk_error.c ****             nrk_kprintf (PSTR ("Extra Task started, is nrk_cfg.h ok?"));
 567               	.LM30:
 568 00ce 80E0      		ldi r24,lo8(__c.3345)
 569 00d0 90E0      		ldi r25,hi8(__c.3345)
 570 00d2 00C0      		rjmp .L40
 571               	.L22:
 228:../../../src/kernel/source/nrk_error.c ****             break;
 229:../../../src/kernel/source/nrk_error.c ****         case NRK_LOW_VOLTAGE:
 230:../../../src/kernel/source/nrk_error.c ****             nrk_kprintf (PSTR ("Low Voltage"));
 573               	.LM31:
 574 00d4 80E0      		ldi r24,lo8(__c.3348)
 575 00d6 90E0      		ldi r25,hi8(__c.3348)
 576 00d8 00C0      		rjmp .L40
 577               	.L23:
 231:../../../src/kernel/source/nrk_error.c ****             break;
 232:../../../src/kernel/source/nrk_error.c ****         case NRK_SEG_FAULT:
 233:../../../src/kernel/source/nrk_error.c ****             nrk_kprintf (PSTR ("Unhandled Interrupt Vector"));
 579               	.LM32:
 580 00da 80E0      		ldi r24,lo8(__c.3351)
 581 00dc 90E0      		ldi r25,hi8(__c.3351)
 582 00de 00C0      		rjmp .L40
 583               	.L24:
 234:../../../src/kernel/source/nrk_error.c ****             break;
 235:../../../src/kernel/source/nrk_error.c ****         case NRK_TIMER_OVERFLOW:
 236:../../../src/kernel/source/nrk_error.c ****             nrk_kprintf (PSTR ("Timer Overflow"));
 585               	.LM33:
 586 00e0 80E0      		ldi r24,lo8(__c.3354)
 587 00e2 90E0      		ldi r25,hi8(__c.3354)
 588 00e4 00C0      		rjmp .L40
 589               	.L34:
 237:../../../src/kernel/source/nrk_error.c ****             break;
 238:../../../src/kernel/source/nrk_error.c ****         case NRK_SW_WATCHDOG_ERROR:
 239:../../../src/kernel/source/nrk_error.c ****             nrk_kprintf (PSTR ("SW Watchdog Restart"));
 591               	.LM34:
 592 00e6 80E0      		ldi r24,lo8(__c.3357)
 593 00e8 90E0      		ldi r25,hi8(__c.3357)
 594 00ea 00C0      		rjmp .L40
 595               	.L29:
 240:../../../src/kernel/source/nrk_error.c ****             break;
 241:../../../src/kernel/source/nrk_error.c ****         case NRK_WATCHDOG_ERROR:
 242:../../../src/kernel/source/nrk_error.c ****             nrk_kprintf (PSTR ("Watchdog Restart"));
 597               	.LM35:
 598 00ec 80E0      		ldi r24,lo8(__c.3360)
 599 00ee 90E0      		ldi r25,hi8(__c.3360)
 600 00f0 00C0      		rjmp .L40
 601               	.L25:
 243:../../../src/kernel/source/nrk_error.c ****             break;
 244:../../../src/kernel/source/nrk_error.c ****         case NRK_DEVICE_DRIVER:
 245:../../../src/kernel/source/nrk_error.c ****             nrk_kprintf (PSTR ("Device Driver Error"));
 603               	.LM36:
 604 00f2 80E0      		ldi r24,lo8(__c.3363)
 605 00f4 90E0      		ldi r25,hi8(__c.3363)
 606 00f6 00C0      		rjmp .L40
 607               	.L26:
 246:../../../src/kernel/source/nrk_error.c ****             break;
 247:../../../src/kernel/source/nrk_error.c ****         case NRK_UNIMPLEMENTED:
 248:../../../src/kernel/source/nrk_error.c ****             nrk_kprintf (PSTR ("Kernel function not implemented"));
 609               	.LM37:
 610 00f8 80E0      		ldi r24,lo8(__c.3366)
 611 00fa 90E0      		ldi r25,hi8(__c.3366)
 612 00fc 00C0      		rjmp .L40
 613               	.L27:
 249:../../../src/kernel/source/nrk_error.c ****             break;
 250:../../../src/kernel/source/nrk_error.c ****         case NRK_SIGNAL_CREATE_ERROR:
 251:../../../src/kernel/source/nrk_error.c ****             nrk_kprintf (PSTR ("Failed to create Signal"));
 615               	.LM38:
 616 00fe 80E0      		ldi r24,lo8(__c.3369)
 617 0100 90E0      		ldi r25,hi8(__c.3369)
 618 0102 00C0      		rjmp .L40
 619               	.L28:
 252:../../../src/kernel/source/nrk_error.c ****             break;
 253:../../../src/kernel/source/nrk_error.c ****         case NRK_SEMAPHORE_CREATE_ERROR:
 254:../../../src/kernel/source/nrk_error.c ****             nrk_kprintf (PSTR ("Failed to create Semaphore"));
 621               	.LM39:
 622 0104 80E0      		ldi r24,lo8(__c.3372)
 623 0106 90E0      		ldi r25,hi8(__c.3372)
 624 0108 00C0      		rjmp .L40
 625               	.L32:
 255:../../../src/kernel/source/nrk_error.c ****             break;
 256:../../../src/kernel/source/nrk_error.c ****         case NRK_BOD_ERROR:
 257:../../../src/kernel/source/nrk_error.c ****             nrk_kprintf (PSTR ("Brown Out Detect"));
 627               	.LM40:
 628 010a 80E0      		ldi r24,lo8(__c.3375)
 629 010c 90E0      		ldi r25,hi8(__c.3375)
 630 010e 00C0      		rjmp .L40
 631               	.L33:
 258:../../../src/kernel/source/nrk_error.c ****             break;
 259:../../../src/kernel/source/nrk_error.c ****         case NRK_EXT_RST_ERROR:
 260:../../../src/kernel/source/nrk_error.c ****             nrk_kprintf (PSTR ("External Reset"));
 633               	.LM41:
 634 0110 80E0      		ldi r24,lo8(__c.3378)
 635 0112 90E0      		ldi r25,hi8(__c.3378)
 636 0114 00C0      		rjmp .L40
 637               	.L12:
 261:../../../src/kernel/source/nrk_error.c ****             break;
 262:../../../src/kernel/source/nrk_error.c ****         default:
 263:../../../src/kernel/source/nrk_error.c ****             nrk_kprintf (PSTR ("UNKOWN"));
 639               	.LM42:
 640 0116 80E0      		ldi r24,lo8(__c.3381)
 641 0118 90E0      		ldi r25,hi8(__c.3381)
 642               	.L40:
 643 011a 0E94 0000 		call nrk_kprintf
 264:../../../src/kernel/source/nrk_error.c ****         }
 265:../../../src/kernel/source/nrk_error.c ****         putchar ('\r');
 645               	.LM43:
 646 011e 6091 0000 		lds r22,__iob+2
 647 0122 7091 0000 		lds r23,__iob+2+1
 648 0126 8DE0      		ldi r24,lo8(13)
 649 0128 90E0      		ldi r25,0
 650 012a 0E94 0000 		call fputc
 266:../../../src/kernel/source/nrk_error.c ****         putchar ('\n');
 652               	.LM44:
 653 012e 6091 0000 		lds r22,__iob+2
 654 0132 7091 0000 		lds r23,__iob+2+1
 655 0136 8AE0      		ldi r24,lo8(10)
 656 0138 90E0      		ldi r25,0
 657 013a 0E94 0000 		call fputc
 267:../../../src/kernel/source/nrk_error.c **** 
 268:../../../src/kernel/source/nrk_error.c **** #ifdef NRK_SOFT_REBOOT_ON_ERROR
 269:../../../src/kernel/source/nrk_error.c **** #ifdef NRK_WATCHDOG
 270:../../../src/kernel/source/nrk_error.c ****         nrk_watchdog_disable();
 271:../../../src/kernel/source/nrk_error.c **** #endif
 272:../../../src/kernel/source/nrk_error.c **** 
 273:../../../src/kernel/source/nrk_error.c ****         GTCCR=0;
 274:../../../src/kernel/source/nrk_error.c ****         ASSR=0;
 275:../../../src/kernel/source/nrk_error.c **** 
 276:../../../src/kernel/source/nrk_error.c ****         OCR0B=0;
 277:../../../src/kernel/source/nrk_error.c ****         OCR0A=0;
 278:../../../src/kernel/source/nrk_error.c ****         TCNT0=0;
 279:../../../src/kernel/source/nrk_error.c ****         TCCR0B=0;
 280:../../../src/kernel/source/nrk_error.c ****         TCCR0A=0;
 281:../../../src/kernel/source/nrk_error.c **** 
 282:../../../src/kernel/source/nrk_error.c ****         EIMSK=0;
 283:../../../src/kernel/source/nrk_error.c ****         EIFR=0;
 284:../../../src/kernel/source/nrk_error.c ****         PCIFR=0;
 285:../../../src/kernel/source/nrk_error.c **** 
 286:../../../src/kernel/source/nrk_error.c **** 
 287:../../../src/kernel/source/nrk_error.c ****         OCR3B =0;
 288:../../../src/kernel/source/nrk_error.c ****         OCR3A =0;
 289:../../../src/kernel/source/nrk_error.c ****         TCNT3 =0;
 290:../../../src/kernel/source/nrk_error.c ****         TCCR3B=0;
 291:../../../src/kernel/source/nrk_error.c ****         TCCR3A=0;
 292:../../../src/kernel/source/nrk_error.c ****         TIFR3=0;
 293:../../../src/kernel/source/nrk_error.c ****         TIMSK3=0;
 294:../../../src/kernel/source/nrk_error.c **** 
 295:../../../src/kernel/source/nrk_error.c **** 
 296:../../../src/kernel/source/nrk_error.c ****         OCR2B =0;
 297:../../../src/kernel/source/nrk_error.c ****         OCR2A =0;
 298:../../../src/kernel/source/nrk_error.c ****         TCNT2 =0;
 299:../../../src/kernel/source/nrk_error.c ****         TCCR2B=0;
 300:../../../src/kernel/source/nrk_error.c ****         TCCR2A=0;
 301:../../../src/kernel/source/nrk_error.c ****         TCCR2A=0;
 302:../../../src/kernel/source/nrk_error.c ****         TIFR2=0;
 303:../../../src/kernel/source/nrk_error.c ****         TIMSK2=0;
 304:../../../src/kernel/source/nrk_error.c **** 
 305:../../../src/kernel/source/nrk_error.c **** //nrk_int_disable();
 306:../../../src/kernel/source/nrk_error.c ****         asm volatile(	"ldi r28,0xFF\n\t"
 307:../../../src/kernel/source/nrk_error.c ****                         "out __SP_L__, r28\n\t"
 308:../../../src/kernel/source/nrk_error.c ****                         "ldi r29,0x21\n\t"
 309:../../../src/kernel/source/nrk_error.c ****                         "out __SP_H__, r29\n\t"
 310:../../../src/kernel/source/nrk_error.c ****                         "clr r0\n\t"
 311:../../../src/kernel/source/nrk_error.c ****                         "clr r1\n\t"
 312:../../../src/kernel/source/nrk_error.c ****                         "clr r2\n\t"
 313:../../../src/kernel/source/nrk_error.c ****                         "clr r3\n\t"
 314:../../../src/kernel/source/nrk_error.c ****                         "clr r4\n\t"
 315:../../../src/kernel/source/nrk_error.c ****                         "clr r5\n\t"
 316:../../../src/kernel/source/nrk_error.c ****                         "clr r6\n\t"
 317:../../../src/kernel/source/nrk_error.c ****                         "clr r7\n\t"
 318:../../../src/kernel/source/nrk_error.c ****                         "clr r8\n\t"
 319:../../../src/kernel/source/nrk_error.c ****                         "clr r9\n\t"
 320:../../../src/kernel/source/nrk_error.c ****                         "clr r10\n\t"
 321:../../../src/kernel/source/nrk_error.c ****                         "clr r11\n\t"
 322:../../../src/kernel/source/nrk_error.c ****                         "clr r12\n\t"
 323:../../../src/kernel/source/nrk_error.c ****                         "clr r13\n\t"
 324:../../../src/kernel/source/nrk_error.c ****                         "clr r14\n\t"
 325:../../../src/kernel/source/nrk_error.c ****                         "clr r15\n\t"
 326:../../../src/kernel/source/nrk_error.c ****                         "clr r16\n\t"
 327:../../../src/kernel/source/nrk_error.c ****                         "clr r17\n\t"
 328:../../../src/kernel/source/nrk_error.c ****                         "clr r18\n\t"
 329:../../../src/kernel/source/nrk_error.c ****                         "clr r19\n\t"
 330:../../../src/kernel/source/nrk_error.c ****                         "clr r20\n\t"
 331:../../../src/kernel/source/nrk_error.c ****                         "clr r21\n\t"
 332:../../../src/kernel/source/nrk_error.c ****                         "clr r22\n\t"
 333:../../../src/kernel/source/nrk_error.c ****                         "clr r23\n\t"
 334:../../../src/kernel/source/nrk_error.c ****                         "clr r24\n\t"
 335:../../../src/kernel/source/nrk_error.c ****                         "clr r25\n\t"
 336:../../../src/kernel/source/nrk_error.c ****                         "clr r26\n\t"
 337:../../../src/kernel/source/nrk_error.c ****                         "clr r27\n\t"
 338:../../../src/kernel/source/nrk_error.c ****                         "clr r28\n\t"
 339:../../../src/kernel/source/nrk_error.c ****                         "clr r29\n\t"
 340:../../../src/kernel/source/nrk_error.c ****                         "clr r30\n\t"
 341:../../../src/kernel/source/nrk_error.c ****                         "clr r31\n\t"
 342:../../../src/kernel/source/nrk_error.c ****                         "cli\n\t"
 343:../../../src/kernel/source/nrk_error.c ****                         "out __SREG__, r0\n\t"
 344:../../../src/kernel/source/nrk_error.c ****                         "jmp __ctors_end\n\t"
 345:../../../src/kernel/source/nrk_error.c ****                         ::);
 346:../../../src/kernel/source/nrk_error.c **** #endif
 347:../../../src/kernel/source/nrk_error.c **** 
 348:../../../src/kernel/source/nrk_error.c **** #ifdef NRK_REBOOT_ON_ERROR
 349:../../../src/kernel/source/nrk_error.c ****         // wait for watchdog to kick in
 350:../../../src/kernel/source/nrk_error.c ****         if(error_num!=NRK_WATCHDOG_ERROR && error_num!=NRK_BOD_ERROR && error_num!=NRK_EXT_RST_ERRO
 351:../../../src/kernel/source/nrk_error.c ****         {
 352:../../../src/kernel/source/nrk_error.c ****             nrk_watchdog_enable();
 353:../../../src/kernel/source/nrk_error.c ****             nrk_int_disable();
 354:../../../src/kernel/source/nrk_error.c ****             while(1);
 355:../../../src/kernel/source/nrk_error.c ****         }
 356:../../../src/kernel/source/nrk_error.c **** #endif
 357:../../../src/kernel/source/nrk_error.c **** 
 358:../../../src/kernel/source/nrk_error.c **** 
 359:../../../src/kernel/source/nrk_error.c **** 
 360:../../../src/kernel/source/nrk_error.c **** //t=error_num;
 361:../../../src/kernel/source/nrk_error.c **** #ifdef NRK_HALT_AND_LOOP_ON_ERROR
 362:../../../src/kernel/source/nrk_error.c ****         for(i=0; i<20; i++ )
 363:../../../src/kernel/source/nrk_error.c ****         {
 364:../../../src/kernel/source/nrk_error.c ****             nrk_led_set (2);
 365:../../../src/kernel/source/nrk_error.c ****             nrk_led_clr (3);
 366:../../../src/kernel/source/nrk_error.c ****             for (t = 0; t < 100; t++)
 367:../../../src/kernel/source/nrk_error.c ****                 nrk_spin_wait_us (1000);
 368:../../../src/kernel/source/nrk_error.c ****             nrk_led_set (3);
 369:../../../src/kernel/source/nrk_error.c ****             nrk_led_clr (2);
 370:../../../src/kernel/source/nrk_error.c ****             for (t = 0; t < 100; t++)
 371:../../../src/kernel/source/nrk_error.c ****                 nrk_spin_wait_us (1000);
 372:../../../src/kernel/source/nrk_error.c ****         }
 373:../../../src/kernel/source/nrk_error.c **** 
 374:../../../src/kernel/source/nrk_error.c ****         nrk_led_clr(2);
 375:../../../src/kernel/source/nrk_error.c ****         nrk_led_clr(3);
 376:../../../src/kernel/source/nrk_error.c ****         blink_morse_code_error( error_task );
 377:../../../src/kernel/source/nrk_error.c ****         pause();
 378:../../../src/kernel/source/nrk_error.c ****         nrk_led_set(2);
 379:../../../src/kernel/source/nrk_error.c ****         pause();
 380:../../../src/kernel/source/nrk_error.c ****         nrk_led_clr(2);
 381:../../../src/kernel/source/nrk_error.c ****         pause();
 382:../../../src/kernel/source/nrk_error.c ****         blink_morse_code_error( error_num);
 383:../../../src/kernel/source/nrk_error.c ****     }
 384:../../../src/kernel/source/nrk_error.c **** 
 385:../../../src/kernel/source/nrk_error.c **** #endif  /*  */
 386:../../../src/kernel/source/nrk_error.c **** 
 387:../../../src/kernel/source/nrk_error.c **** #ifdef NRK_HALT_ON_ERROR
 388:../../../src/kernel/source/nrk_error.c ****     while (1)
 389:../../../src/kernel/source/nrk_error.c ****     {
 390:../../../src/kernel/source/nrk_error.c ****         for(i=0; i<20; i++ )
 391:../../../src/kernel/source/nrk_error.c ****         {
 392:../../../src/kernel/source/nrk_error.c ****             nrk_led_set (2);
 393:../../../src/kernel/source/nrk_error.c ****             nrk_led_clr (3);
 394:../../../src/kernel/source/nrk_error.c ****             for (t = 0; t < 100; t++)
 395:../../../src/kernel/source/nrk_error.c ****                 nrk_spin_wait_us (1000);
 396:../../../src/kernel/source/nrk_error.c ****             nrk_led_set (3);
 397:../../../src/kernel/source/nrk_error.c ****             nrk_led_clr (2);
 398:../../../src/kernel/source/nrk_error.c ****             for (t = 0; t < 100; t++)
 399:../../../src/kernel/source/nrk_error.c ****                 nrk_spin_wait_us (1000);
 400:../../../src/kernel/source/nrk_error.c ****         }
 401:../../../src/kernel/source/nrk_error.c ****         nrk_led_clr (3);
 402:../../../src/kernel/source/nrk_error.c ****         nrk_led_clr (2);
 403:../../../src/kernel/source/nrk_error.c ****         blink_morse_code_error( error_task );
 404:../../../src/kernel/source/nrk_error.c ****         pause();
 405:../../../src/kernel/source/nrk_error.c ****         nrk_led_set(2);
 406:../../../src/kernel/source/nrk_error.c ****         pause();
 407:../../../src/kernel/source/nrk_error.c ****         nrk_led_clr(2);
 408:../../../src/kernel/source/nrk_error.c ****         pause();
 409:../../../src/kernel/source/nrk_error.c ****         blink_morse_code_error( error_num);
 410:../../../src/kernel/source/nrk_error.c ****     }
 411:../../../src/kernel/source/nrk_error.c **** 
 412:../../../src/kernel/source/nrk_error.c **** #endif  /*  */
 413:../../../src/kernel/source/nrk_error.c ****     error_num = 0;
 659               	.LM45:
 660 013e 1092 0000 		sts error_num,__zero_reg__
 661               	.L10:
 662               	.LBE55:
 663               	.LBE54:
 414:../../../src/kernel/source/nrk_error.c ****     return t;
 415:../../../src/kernel/source/nrk_error.c **** }
 665               	.LM46:
 666 0142 80E0      		ldi r24,0
 667 0144 0895      		ret
 669               	.Lscope4:
 671               		.stabd	78,0,0
 674               	.global	nrk_error_add
 676               	nrk_error_add:
 677               		.stabd	46,0,0
  75:../../../src/kernel/source/nrk_error.c ****     error_num = n;
 679               	.LM47:
 680               	.LFBB5:
 681               	/* prologue: function */
 682               	/* frame size = 0 */
 683               	/* stack size = 0 */
 684               	.L__stack_usage = 0
  76:../../../src/kernel/source/nrk_error.c ****     error_task = nrk_cur_task_TCB->task_ID;
 686               	.LM48:
 687 0146 8093 0000 		sts error_num,r24
  77:../../../src/kernel/source/nrk_error.c **** 
 689               	.LM49:
 690 014a E091 0000 		lds r30,nrk_cur_task_TCB
 691 014e F091 0000 		lds r31,nrk_cur_task_TCB+1
 692 0152 8085      		ldd r24,Z+8
 693 0154 8093 0000 		sts error_task,r24
  84:../../../src/kernel/source/nrk_error.c **** #endif  /*  */
 695               	.LM50:
 696 0158 0C94 0000 		jmp nrk_error_print
 698               	.Lscope5:
 700               		.stabd	78,0,0
 704               	.global	nrk_kernel_error_add
 706               	nrk_kernel_error_add:
 707               		.stabd	46,0,0
  89:../../../src/kernel/source/nrk_error.c ****     error_num = n;
 709               	.LM51:
 710               	.LFBB6:
 711               	/* prologue: function */
 712               	/* frame size = 0 */
 713               	/* stack size = 0 */
 714               	.L__stack_usage = 0
  90:../../../src/kernel/source/nrk_error.c ****     error_task = task;
 716               	.LM52:
 717 015c 8093 0000 		sts error_num,r24
  91:../../../src/kernel/source/nrk_error.c **** 
 719               	.LM53:
 720 0160 6093 0000 		sts error_task,r22
  98:../../../src/kernel/source/nrk_error.c **** 
 722               	.LM54:
 723 0164 0C94 0000 		jmp nrk_error_print
 725               	.Lscope6:
 727               		.stabd	78,0,0
 729               	.global	pause
 731               	pause:
 732               		.stabd	46,0,0
 416:../../../src/kernel/source/nrk_error.c **** 
 417:../../../src/kernel/source/nrk_error.c **** void blink_dash()
 418:../../../src/kernel/source/nrk_error.c **** {
 419:../../../src/kernel/source/nrk_error.c ****     nrk_led_set (GREEN_LED);
 420:../../../src/kernel/source/nrk_error.c ****     pause();
 421:../../../src/kernel/source/nrk_error.c ****     pause();
 422:../../../src/kernel/source/nrk_error.c ****     pause();
 423:../../../src/kernel/source/nrk_error.c ****     nrk_led_clr(GREEN_LED);
 424:../../../src/kernel/source/nrk_error.c ****     pause();
 425:../../../src/kernel/source/nrk_error.c **** }
 426:../../../src/kernel/source/nrk_error.c **** 
 427:../../../src/kernel/source/nrk_error.c **** void blink_dot()
 428:../../../src/kernel/source/nrk_error.c **** {
 429:../../../src/kernel/source/nrk_error.c ****     nrk_led_set(GREEN_LED);
 430:../../../src/kernel/source/nrk_error.c ****     pause();
 431:../../../src/kernel/source/nrk_error.c ****     nrk_led_clr(GREEN_LED);
 432:../../../src/kernel/source/nrk_error.c ****     pause();
 433:../../../src/kernel/source/nrk_error.c **** }
 434:../../../src/kernel/source/nrk_error.c **** 
 435:../../../src/kernel/source/nrk_error.c **** 
 436:../../../src/kernel/source/nrk_error.c **** void blink_morse_code_error( uint8_t number )
 437:../../../src/kernel/source/nrk_error.c **** {
 438:../../../src/kernel/source/nrk_error.c ****     uint8_t i;
 439:../../../src/kernel/source/nrk_error.c ****     char str[3];
 440:../../../src/kernel/source/nrk_error.c **** 
 441:../../../src/kernel/source/nrk_error.c ****     sprintf( str,"%d",number );
 442:../../../src/kernel/source/nrk_error.c **** 
 443:../../../src/kernel/source/nrk_error.c ****     for(i=0; i<strlen(str); i++ )
 444:../../../src/kernel/source/nrk_error.c ****     {
 445:../../../src/kernel/source/nrk_error.c ****         switch( str[i])
 446:../../../src/kernel/source/nrk_error.c ****         {
 447:../../../src/kernel/source/nrk_error.c ****         case '0':
 448:../../../src/kernel/source/nrk_error.c ****             blink_dash();
 449:../../../src/kernel/source/nrk_error.c ****             blink_dash();
 450:../../../src/kernel/source/nrk_error.c ****             blink_dash();
 451:../../../src/kernel/source/nrk_error.c ****             blink_dash();
 452:../../../src/kernel/source/nrk_error.c ****             blink_dash();
 453:../../../src/kernel/source/nrk_error.c ****             break;
 454:../../../src/kernel/source/nrk_error.c ****         case '1':
 455:../../../src/kernel/source/nrk_error.c ****             blink_dot();
 456:../../../src/kernel/source/nrk_error.c ****             blink_dash();
 457:../../../src/kernel/source/nrk_error.c ****             blink_dash();
 458:../../../src/kernel/source/nrk_error.c ****             blink_dash();
 459:../../../src/kernel/source/nrk_error.c ****             blink_dash();
 460:../../../src/kernel/source/nrk_error.c ****             break;
 461:../../../src/kernel/source/nrk_error.c ****         case '2':
 462:../../../src/kernel/source/nrk_error.c ****             blink_dot();
 463:../../../src/kernel/source/nrk_error.c ****             blink_dot();
 464:../../../src/kernel/source/nrk_error.c ****             blink_dash();
 465:../../../src/kernel/source/nrk_error.c ****             blink_dash();
 466:../../../src/kernel/source/nrk_error.c ****             blink_dash();
 467:../../../src/kernel/source/nrk_error.c ****             break;
 468:../../../src/kernel/source/nrk_error.c ****         case '3':
 469:../../../src/kernel/source/nrk_error.c ****             blink_dot();
 470:../../../src/kernel/source/nrk_error.c ****             blink_dot();
 471:../../../src/kernel/source/nrk_error.c ****             blink_dot();
 472:../../../src/kernel/source/nrk_error.c ****             blink_dash();
 473:../../../src/kernel/source/nrk_error.c ****             blink_dash();
 474:../../../src/kernel/source/nrk_error.c ****             break;
 475:../../../src/kernel/source/nrk_error.c ****         case '4':
 476:../../../src/kernel/source/nrk_error.c ****             blink_dot();
 477:../../../src/kernel/source/nrk_error.c ****             blink_dot();
 478:../../../src/kernel/source/nrk_error.c ****             blink_dot();
 479:../../../src/kernel/source/nrk_error.c ****             blink_dot();
 480:../../../src/kernel/source/nrk_error.c ****             blink_dash();
 481:../../../src/kernel/source/nrk_error.c ****             break;
 482:../../../src/kernel/source/nrk_error.c ****         case '5':
 483:../../../src/kernel/source/nrk_error.c ****             blink_dot();
 484:../../../src/kernel/source/nrk_error.c ****             blink_dot();
 485:../../../src/kernel/source/nrk_error.c ****             blink_dot();
 486:../../../src/kernel/source/nrk_error.c ****             blink_dot();
 487:../../../src/kernel/source/nrk_error.c ****             blink_dot();
 488:../../../src/kernel/source/nrk_error.c ****             break;
 489:../../../src/kernel/source/nrk_error.c ****         case '6':
 490:../../../src/kernel/source/nrk_error.c ****             blink_dash();
 491:../../../src/kernel/source/nrk_error.c ****             blink_dot();
 492:../../../src/kernel/source/nrk_error.c ****             blink_dot();
 493:../../../src/kernel/source/nrk_error.c ****             blink_dot();
 494:../../../src/kernel/source/nrk_error.c ****             blink_dot();
 495:../../../src/kernel/source/nrk_error.c ****             break;
 496:../../../src/kernel/source/nrk_error.c ****         case '7':
 497:../../../src/kernel/source/nrk_error.c ****             blink_dash();
 498:../../../src/kernel/source/nrk_error.c ****             blink_dash();
 499:../../../src/kernel/source/nrk_error.c ****             blink_dot();
 500:../../../src/kernel/source/nrk_error.c ****             blink_dot();
 501:../../../src/kernel/source/nrk_error.c ****             blink_dot();
 502:../../../src/kernel/source/nrk_error.c ****             break;
 503:../../../src/kernel/source/nrk_error.c ****         case '8':
 504:../../../src/kernel/source/nrk_error.c ****             blink_dash();
 505:../../../src/kernel/source/nrk_error.c ****             blink_dash();
 506:../../../src/kernel/source/nrk_error.c ****             blink_dash();
 507:../../../src/kernel/source/nrk_error.c ****             blink_dot();
 508:../../../src/kernel/source/nrk_error.c ****             blink_dot();
 509:../../../src/kernel/source/nrk_error.c ****             break;
 510:../../../src/kernel/source/nrk_error.c ****         case '9':
 511:../../../src/kernel/source/nrk_error.c ****             blink_dash();
 512:../../../src/kernel/source/nrk_error.c ****             blink_dash();
 513:../../../src/kernel/source/nrk_error.c ****             blink_dash();
 514:../../../src/kernel/source/nrk_error.c ****             blink_dash();
 515:../../../src/kernel/source/nrk_error.c ****             blink_dot();
 516:../../../src/kernel/source/nrk_error.c ****             break;
 517:../../../src/kernel/source/nrk_error.c ****         }
 518:../../../src/kernel/source/nrk_error.c ****         pause();
 519:../../../src/kernel/source/nrk_error.c ****         pause();
 520:../../../src/kernel/source/nrk_error.c ****         pause();
 521:../../../src/kernel/source/nrk_error.c ****     }
 522:../../../src/kernel/source/nrk_error.c **** 
 523:../../../src/kernel/source/nrk_error.c **** }
 524:../../../src/kernel/source/nrk_error.c **** 
 525:../../../src/kernel/source/nrk_error.c **** void pause()
 526:../../../src/kernel/source/nrk_error.c **** {
 734               	.LM55:
 735               	.LFBB7:
 736 0168 CF93      		push r28
 737 016a DF93      		push r29
 738 016c 1F92      		push __zero_reg__
 739 016e CDB7      		in r28,__SP_L__
 740 0170 DEB7      		in r29,__SP_H__
 741               	/* prologue: function */
 742               	/* frame size = 1 */
 743               	/* stack size = 3 */
 744               	.L__stack_usage = 3
 527:../../../src/kernel/source/nrk_error.c ****     volatile uint8_t t;
 528:../../../src/kernel/source/nrk_error.c ****     for (t = 0; t < 100; t++)
 746               	.LM56:
 747 0172 1982      		std Y+1,__zero_reg__
 748               	.L44:
 750               	.LM57:
 751 0174 8981      		ldd r24,Y+1
 752 0176 8436      		cpi r24,lo8(100)
 753 0178 00F4      		brsh .L46
 529:../../../src/kernel/source/nrk_error.c ****         nrk_spin_wait_us (2000);
 755               	.LM58:
 756 017a 80ED      		ldi r24,lo8(-48)
 757 017c 97E0      		ldi r25,lo8(7)
 758 017e 0E94 0000 		call nrk_spin_wait_us
 528:../../../src/kernel/source/nrk_error.c ****         nrk_spin_wait_us (2000);
 760               	.LM59:
 761 0182 8981      		ldd r24,Y+1
 762 0184 8F5F      		subi r24,lo8(-(1))
 763 0186 8983      		std Y+1,r24
 764 0188 00C0      		rjmp .L44
 765               	.L46:
 766               	/* epilogue start */
 530:../../../src/kernel/source/nrk_error.c **** }
 768               	.LM60:
 769 018a 0F90      		pop __tmp_reg__
 770 018c DF91      		pop r29
 771 018e CF91      		pop r28
 772 0190 0895      		ret
 777               	.Lscope7:
 779               		.stabd	78,0,0
 781               	.global	blink_dash
 783               	blink_dash:
 784               		.stabd	46,0,0
 418:../../../src/kernel/source/nrk_error.c ****     nrk_led_set (GREEN_LED);
 786               	.LM61:
 787               	.LFBB8:
 788               	/* prologue: function */
 789               	/* frame size = 0 */
 790               	/* stack size = 0 */
 791               	.L__stack_usage = 0
 419:../../../src/kernel/source/nrk_error.c ****     pause();
 793               	.LM62:
 794 0192 81E0      		ldi r24,lo8(1)
 795 0194 90E0      		ldi r25,0
 796 0196 0E94 0000 		call nrk_led_set
 420:../../../src/kernel/source/nrk_error.c ****     pause();
 798               	.LM63:
 799 019a 0E94 0000 		call pause
 421:../../../src/kernel/source/nrk_error.c ****     pause();
 801               	.LM64:
 802 019e 0E94 0000 		call pause
 422:../../../src/kernel/source/nrk_error.c ****     nrk_led_clr(GREEN_LED);
 804               	.LM65:
 805 01a2 0E94 0000 		call pause
 423:../../../src/kernel/source/nrk_error.c ****     pause();
 807               	.LM66:
 808 01a6 81E0      		ldi r24,lo8(1)
 809 01a8 90E0      		ldi r25,0
 810 01aa 0E94 0000 		call nrk_led_clr
 424:../../../src/kernel/source/nrk_error.c **** }
 812               	.LM67:
 813 01ae 0C94 0000 		jmp pause
 815               	.Lscope8:
 817               		.stabd	78,0,0
 819               	.global	blink_dot
 821               	blink_dot:
 822               		.stabd	46,0,0
 428:../../../src/kernel/source/nrk_error.c ****     nrk_led_set(GREEN_LED);
 824               	.LM68:
 825               	.LFBB9:
 826               	/* prologue: function */
 827               	/* frame size = 0 */
 828               	/* stack size = 0 */
 829               	.L__stack_usage = 0
 429:../../../src/kernel/source/nrk_error.c ****     pause();
 831               	.LM69:
 832 01b2 81E0      		ldi r24,lo8(1)
 833 01b4 90E0      		ldi r25,0
 834 01b6 0E94 0000 		call nrk_led_set
 430:../../../src/kernel/source/nrk_error.c ****     nrk_led_clr(GREEN_LED);
 836               	.LM70:
 837 01ba 0E94 0000 		call pause
 431:../../../src/kernel/source/nrk_error.c ****     pause();
 839               	.LM71:
 840 01be 81E0      		ldi r24,lo8(1)
 841 01c0 90E0      		ldi r25,0
 842 01c2 0E94 0000 		call nrk_led_clr
 432:../../../src/kernel/source/nrk_error.c **** }
 844               	.LM72:
 845 01c6 0C94 0000 		jmp pause
 847               	.Lscope9:
 849               		.stabd	78,0,0
 852               	.global	blink_morse_code_error
 854               	blink_morse_code_error:
 855               		.stabd	46,0,0
 437:../../../src/kernel/source/nrk_error.c ****     uint8_t i;
 857               	.LM73:
 858               	.LFBB10:
 859 01ca FF92      		push r15
 860 01cc 0F93      		push r16
 861 01ce 1F93      		push r17
 862 01d0 CF93      		push r28
 863 01d2 DF93      		push r29
 864 01d4 00D0      		rcall .
 865 01d6 1F92      		push __zero_reg__
 866 01d8 CDB7      		in r28,__SP_L__
 867 01da DEB7      		in r29,__SP_H__
 868               	/* prologue: function */
 869               	/* frame size = 3 */
 870               	/* stack size = 8 */
 871               	.L__stack_usage = 8
 441:../../../src/kernel/source/nrk_error.c **** 
 873               	.LM74:
 874 01dc 1F92      		push __zero_reg__
 875 01de 8F93      		push r24
 876 01e0 80E0      		ldi r24,lo8(.LC0)
 877 01e2 90E0      		ldi r25,hi8(.LC0)
 878 01e4 9F93      		push r25
 879 01e6 8F93      		push r24
 880 01e8 8E01      		movw r16,r28
 881 01ea 0F5F      		subi r16,-1
 882 01ec 1F4F      		sbci r17,-1
 883 01ee 1F93      		push r17
 884 01f0 0F93      		push r16
 885 01f2 0E94 0000 		call sprintf
 443:../../../src/kernel/source/nrk_error.c ****     {
 887               	.LM75:
 888 01f6 0F90      		pop __tmp_reg__
 889 01f8 0F90      		pop __tmp_reg__
 890 01fa 0F90      		pop __tmp_reg__
 891 01fc 0F90      		pop __tmp_reg__
 892 01fe 0F90      		pop __tmp_reg__
 893 0200 0F90      		pop __tmp_reg__
 894 0202 F12C      		mov r15,__zero_reg__
 895               	.L50:
 443:../../../src/kernel/source/nrk_error.c ****     {
 897               	.LM76:
 898 0204 F801      		movw r30,r16
 899               		0:
 900 0206 0190      		ld __tmp_reg__,Z+
 901 0208 0020      		tst __tmp_reg__
 902 020a 01F4      		brne 0b
 903 020c 3197      		sbiw r30,1
 904 020e E01B      		sub r30,r16
 905 0210 F10B      		sbc r31,r17
 906 0212 8F2D      		mov r24,r15
 907 0214 90E0      		ldi r25,0
 908 0216 8E17      		cp r24,r30
 909 0218 9F07      		cpc r25,r31
 910 021a 00F0      		brlo .+2
 911 021c 00C0      		rjmp .L72
 445:../../../src/kernel/source/nrk_error.c ****         {
 913               	.LM77:
 914 021e F801      		movw r30,r16
 915 0220 E80F      		add r30,r24
 916 0222 F91F      		adc r31,r25
 917 0224 E081      		ld r30,Z
 918 0226 8E2F      		mov r24,r30
 919 0228 90E0      		ldi r25,0
 920 022a FC01      		movw r30,r24
 921 022c F097      		sbiw r30,48
 922 022e EA30      		cpi r30,10
 923 0230 F105      		cpc r31,__zero_reg__
 924 0232 00F0      		brlo .+2
 925 0234 00C0      		rjmp .L51
 926 0236 E050      		subi r30,lo8(-(gs(.L53)))
 927 0238 F040      		sbci r31,hi8(-(gs(.L53)))
 928 023a 0C94 0000 		jmp __tablejump2__
 929               		.section	.progmem.gcc_sw_table,"a",@progbits
 930               		.p2align	1
 931               	.L53:
 932 002c 0000      		.word gs(.L52)
 933 002e 0000      		.word gs(.L54)
 934 0030 0000      		.word gs(.L55)
 935 0032 0000      		.word gs(.L56)
 936 0034 0000      		.word gs(.L57)
 937 0036 0000      		.word gs(.L58)
 938 0038 0000      		.word gs(.L59)
 939 003a 0000      		.word gs(.L60)
 940 003c 0000      		.word gs(.L61)
 941 003e 0000      		.word gs(.L62)
 942               		.text
 943               	.L52:
 448:../../../src/kernel/source/nrk_error.c ****             blink_dash();
 945               	.LM78:
 946 023e 0E94 0000 		call blink_dash
 947 0242 00C0      		rjmp .L64
 948               	.L54:
 455:../../../src/kernel/source/nrk_error.c ****             blink_dash();
 950               	.LM79:
 951 0244 0E94 0000 		call blink_dot
 952               	.L64:
 456:../../../src/kernel/source/nrk_error.c ****             blink_dash();
 954               	.LM80:
 955 0248 0E94 0000 		call blink_dash
 956               	.L68:
 457:../../../src/kernel/source/nrk_error.c ****             blink_dash();
 958               	.LM81:
 959 024c 0E94 0000 		call blink_dash
 960               	.L67:
 458:../../../src/kernel/source/nrk_error.c ****             blink_dash();
 962               	.LM82:
 963 0250 0E94 0000 		call blink_dash
 964               	.L66:
 459:../../../src/kernel/source/nrk_error.c ****             break;
 966               	.LM83:
 967 0254 0E94 0000 		call blink_dash
 460:../../../src/kernel/source/nrk_error.c ****         case '2':
 969               	.LM84:
 970 0258 00C0      		rjmp .L51
 971               	.L55:
 462:../../../src/kernel/source/nrk_error.c ****             blink_dot();
 973               	.LM85:
 974 025a 0E94 0000 		call blink_dot
 463:../../../src/kernel/source/nrk_error.c ****             blink_dash();
 976               	.LM86:
 977 025e 0E94 0000 		call blink_dot
 978 0262 00C0      		rjmp .L68
 979               	.L56:
 469:../../../src/kernel/source/nrk_error.c ****             blink_dot();
 981               	.LM87:
 982 0264 0E94 0000 		call blink_dot
 470:../../../src/kernel/source/nrk_error.c ****             blink_dot();
 984               	.LM88:
 985 0268 0E94 0000 		call blink_dot
 471:../../../src/kernel/source/nrk_error.c ****             blink_dash();
 987               	.LM89:
 988 026c 0E94 0000 		call blink_dot
 989 0270 00C0      		rjmp .L67
 990               	.L57:
 476:../../../src/kernel/source/nrk_error.c ****             blink_dot();
 992               	.LM90:
 993 0272 0E94 0000 		call blink_dot
 477:../../../src/kernel/source/nrk_error.c ****             blink_dot();
 995               	.LM91:
 996 0276 0E94 0000 		call blink_dot
 478:../../../src/kernel/source/nrk_error.c ****             blink_dot();
 998               	.LM92:
 999 027a 0E94 0000 		call blink_dot
 479:../../../src/kernel/source/nrk_error.c ****             blink_dash();
 1001               	.LM93:
 1002 027e 0E94 0000 		call blink_dot
 1003 0282 00C0      		rjmp .L66
 1004               	.L58:
 483:../../../src/kernel/source/nrk_error.c ****             blink_dot();
 1006               	.LM94:
 1007 0284 0E94 0000 		call blink_dot
 1008 0288 00C0      		rjmp .L71
 1009               	.L59:
 490:../../../src/kernel/source/nrk_error.c ****             blink_dot();
 1011               	.LM95:
 1012 028a 0E94 0000 		call blink_dash
 1013               	.L71:
 491:../../../src/kernel/source/nrk_error.c ****             blink_dot();
 1015               	.LM96:
 1016 028e 0E94 0000 		call blink_dot
 1017 0292 00C0      		rjmp .L70
 1018               	.L60:
 497:../../../src/kernel/source/nrk_error.c ****             blink_dash();
 1020               	.LM97:
 1021 0294 0E94 0000 		call blink_dash
 498:../../../src/kernel/source/nrk_error.c ****             blink_dot();
 1023               	.LM98:
 1024 0298 0E94 0000 		call blink_dash
 1025               	.L70:
 499:../../../src/kernel/source/nrk_error.c ****             blink_dot();
 1027               	.LM99:
 1028 029c 0E94 0000 		call blink_dot
 1029 02a0 00C0      		rjmp .L69
 1030               	.L61:
 504:../../../src/kernel/source/nrk_error.c ****             blink_dash();
 1032               	.LM100:
 1033 02a2 0E94 0000 		call blink_dash
 505:../../../src/kernel/source/nrk_error.c ****             blink_dash();
 1035               	.LM101:
 1036 02a6 0E94 0000 		call blink_dash
 506:../../../src/kernel/source/nrk_error.c ****             blink_dot();
 1038               	.LM102:
 1039 02aa 0E94 0000 		call blink_dash
 1040               	.L69:
 507:../../../src/kernel/source/nrk_error.c ****             blink_dot();
 1042               	.LM103:
 1043 02ae 0E94 0000 		call blink_dot
 1044 02b2 00C0      		rjmp .L65
 1045               	.L62:
 511:../../../src/kernel/source/nrk_error.c ****             blink_dash();
 1047               	.LM104:
 1048 02b4 0E94 0000 		call blink_dash
 512:../../../src/kernel/source/nrk_error.c ****             blink_dash();
 1050               	.LM105:
 1051 02b8 0E94 0000 		call blink_dash
 513:../../../src/kernel/source/nrk_error.c ****             blink_dash();
 1053               	.LM106:
 1054 02bc 0E94 0000 		call blink_dash
 514:../../../src/kernel/source/nrk_error.c ****             blink_dot();
 1056               	.LM107:
 1057 02c0 0E94 0000 		call blink_dash
 1058               	.L65:
 515:../../../src/kernel/source/nrk_error.c ****             break;
 1060               	.LM108:
 1061 02c4 0E94 0000 		call blink_dot
 1062               	.L51:
 518:../../../src/kernel/source/nrk_error.c ****         pause();
 1064               	.LM109:
 1065 02c8 0E94 0000 		call pause
 519:../../../src/kernel/source/nrk_error.c ****         pause();
 1067               	.LM110:
 1068 02cc 0E94 0000 		call pause
 520:../../../src/kernel/source/nrk_error.c ****     }
 1070               	.LM111:
 1071 02d0 0E94 0000 		call pause
 443:../../../src/kernel/source/nrk_error.c ****     {
 1073               	.LM112:
 1074 02d4 F394      		inc r15
 1075 02d6 00C0      		rjmp .L50
 1076               	.L72:
 1077               	/* epilogue start */
 523:../../../src/kernel/source/nrk_error.c **** 
 1079               	.LM113:
 1080 02d8 0F90      		pop __tmp_reg__
 1081 02da 0F90      		pop __tmp_reg__
 1082 02dc 0F90      		pop __tmp_reg__
 1083 02de DF91      		pop r29
 1084 02e0 CF91      		pop r28
 1085 02e2 1F91      		pop r17
 1086 02e4 0F91      		pop r16
 1087 02e6 FF90      		pop r15
 1088 02e8 0895      		ret
 1094               	.Lscope10:
 1096               		.stabd	78,0,0
 1097               		.section	.progmem.data,"a",@progbits
 1100               	__c.3381:
 1101 0000 554E 4B4F 		.string	"UNKOWN"
 1101      574E 00
 1104               	__c.3378:
 1105 0007 4578 7465 		.string	"External Reset"
 1105      726E 616C 
 1105      2052 6573 
 1105      6574 00
 1108               	__c.3375:
 1109 0016 4272 6F77 		.string	"Brown Out Detect"
 1109      6E20 4F75 
 1109      7420 4465 
 1109      7465 6374 
 1109      00
 1112               	__c.3372:
 1113 0027 4661 696C 		.string	"Failed to create Semaphore"
 1113      6564 2074 
 1113      6F20 6372 
 1113      6561 7465 
 1113      2053 656D 
 1116               	__c.3369:
 1117 0042 4661 696C 		.string	"Failed to create Signal"
 1117      6564 2074 
 1117      6F20 6372 
 1117      6561 7465 
 1117      2053 6967 
 1120               	__c.3366:
 1121 005a 4B65 726E 		.string	"Kernel function not implemented"
 1121      656C 2066 
 1121      756E 6374 
 1121      696F 6E20 
 1121      6E6F 7420 
 1124               	__c.3363:
 1125 007a 4465 7669 		.string	"Device Driver Error"
 1125      6365 2044 
 1125      7269 7665 
 1125      7220 4572 
 1125      726F 7200 
 1128               	__c.3360:
 1129 008e 5761 7463 		.string	"Watchdog Restart"
 1129      6864 6F67 
 1129      2052 6573 
 1129      7461 7274 
 1129      00
 1132               	__c.3357:
 1133 009f 5357 2057 		.string	"SW Watchdog Restart"
 1133      6174 6368 
 1133      646F 6720 
 1133      5265 7374 
 1133      6172 7400 
 1136               	__c.3354:
 1137 00b3 5469 6D65 		.string	"Timer Overflow"
 1137      7220 4F76 
 1137      6572 666C 
 1137      6F77 00
 1140               	__c.3351:
 1141 00c2 556E 6861 		.string	"Unhandled Interrupt Vector"
 1141      6E64 6C65 
 1141      6420 496E 
 1141      7465 7272 
 1141      7570 7420 
 1144               	__c.3348:
 1145 00dd 4C6F 7720 		.string	"Low Voltage"
 1145      566F 6C74 
 1145      6167 6500 
 1148               	__c.3345:
 1149 00e9 4578 7472 		.string	"Extra Task started, is nrk_cfg.h ok?"
 1149      6120 5461 
 1149      736B 2073 
 1149      7461 7274 
 1149      6564 2C20 
 1152               	__c.3342:
 1153 010e 4964 6C65 		.string	"Idle or Kernel Stack Overflow"
 1153      206F 7220 
 1153      4B65 726E 
 1153      656C 2053 
 1153      7461 636B 
 1156               	__c.3339:
 1157 012c 556E 6578 		.string	"Unexpected Restart"
 1157      7065 6374 
 1157      6564 2052 
 1157      6573 7461 
 1157      7274 00
 1160               	__c.3336:
 1161 013f 4475 706C 		.string	"Duplicated Task ID"
 1161      6963 6174 
 1161      6564 2054 
 1161      6173 6B20 
 1161      4944 00
 1164               	__c.3333:
 1165 0152 5363 6865 		.string	"Scheduler Missed Wakeup"
 1165      6475 6C65 
 1165      7220 4D69 
 1165      7373 6564 
 1165      2057 616B 
 1168               	__c.3330:
 1169 016a 5461 736B 		.string	"Task Reserve Violated"
 1169      2052 6573 
 1169      6572 7665 
 1169      2056 696F 
 1169      6C61 7465 
 1172               	__c.3327:
 1173 0180 5265 7365 		.string	"Reserve Error in Scheduler"
 1173      7276 6520 
 1173      4572 726F 
 1173      7220 696E 
 1173      2053 6368 
 1176               	__c.3324:
 1177 019b 496E 7661 		.string	"Invalid Stack Pointer"
 1177      6C69 6420 
 1177      5374 6163 
 1177      6B20 506F 
 1177      696E 7465 
 1180               	__c.3321:
 1181 01b1 5461 736B 		.string	"Task Stack Overflow"
 1181      2053 7461 
 1181      636B 204F 
 1181      7665 7266 
 1181      6C6F 7700 
 1184               	__c.3318:
 1185 01c5 5374 6163 		.string	"Stack was not defined as large enough!"
 1185      6B20 7761 
 1185      7320 6E6F 
 1185      7420 6465 
 1185      6669 6E65 
 1188               	__c.3314:
 1189 01ec 5461 736B 		.string	"Task period too large. Period must be less than 61 seconds."
 1189      2070 6572 
 1189      696F 6420 
 1189      746F 6F20 
 1189      6C61 7267 
 1192               	__c.3311:
 1193 0228 293A 2000 		.string	"): "
 1196               	__c.3309:
 1197 022c 2A4E 524B 		.string	"*NRK ERROR("
 1197      2045 5252 
 1197      4F52 2800 
 1198               		.comm	app_timer0_prescale,1,1
 1199               		.comm	app_timer0_callback,2,1
 1200               		.comm	_nrk_time_trigger,1,1
 1201               		.comm	_nrk_prev_timer_val,1,1
 1202               		.comm	nrk_kernel_stk_ptr,2,1
 1203               		.comm	nrk_idle_task_stk,512,1
 1204               		.comm	error_num,1,1
 1205               		.comm	error_task,1,1
 1206               		.comm	_nrk_signal_list,4,1
 1216               		.text
 1218               	.Letext0:
 1219               		.ident	"GCC: (GNU) 4.9.1"
 1220               	.global __do_copy_data
 1221               	.global __do_clear_bss
DEFINED SYMBOLS
                            *ABS*:0000000000000000 nrk_error.c
/var/folders/57/dy66zcf543x9s42pt1yfw30r0000gn/T//ccjut009.s:2      *ABS*:000000000000003e __SP_H__
/var/folders/57/dy66zcf543x9s42pt1yfw30r0000gn/T//ccjut009.s:3      *ABS*:000000000000003d __SP_L__
/var/folders/57/dy66zcf543x9s42pt1yfw30r0000gn/T//ccjut009.s:4      *ABS*:000000000000003f __SREG__
/var/folders/57/dy66zcf543x9s42pt1yfw30r0000gn/T//ccjut009.s:5      *ABS*:000000000000003b __RAMPZ__
/var/folders/57/dy66zcf543x9s42pt1yfw30r0000gn/T//ccjut009.s:6      *ABS*:0000000000000000 __tmp_reg__
/var/folders/57/dy66zcf543x9s42pt1yfw30r0000gn/T//ccjut009.s:7      *ABS*:0000000000000001 __zero_reg__
/var/folders/57/dy66zcf543x9s42pt1yfw30r0000gn/T//ccjut009.s:323    .text:0000000000000000 _nrk_errno_set
/var/folders/57/dy66zcf543x9s42pt1yfw30r0000gn/T//ccjut009.s:345    .text:000000000000000c nrk_errno_get
/var/folders/57/dy66zcf543x9s42pt1yfw30r0000gn/T//ccjut009.s:371    .text:0000000000000018 nrk_error_get
                            *COM*:0000000000000001 error_num
                            *COM*:0000000000000001 error_task
/var/folders/57/dy66zcf543x9s42pt1yfw30r0000gn/T//ccjut009.s:412    .text:0000000000000030 nrk_error_print
/var/folders/57/dy66zcf543x9s42pt1yfw30r0000gn/T//ccjut009.s:1196   .progmem.data:000000000000022c __c.3309
/var/folders/57/dy66zcf543x9s42pt1yfw30r0000gn/T//ccjut009.s:1192   .progmem.data:0000000000000228 __c.3311
/var/folders/57/dy66zcf543x9s42pt1yfw30r0000gn/T//ccjut009.s:1188   .progmem.data:00000000000001ec __c.3314
/var/folders/57/dy66zcf543x9s42pt1yfw30r0000gn/T//ccjut009.s:1184   .progmem.data:00000000000001c5 __c.3318
/var/folders/57/dy66zcf543x9s42pt1yfw30r0000gn/T//ccjut009.s:1180   .progmem.data:00000000000001b1 __c.3321
/var/folders/57/dy66zcf543x9s42pt1yfw30r0000gn/T//ccjut009.s:1176   .progmem.data:000000000000019b __c.3324
/var/folders/57/dy66zcf543x9s42pt1yfw30r0000gn/T//ccjut009.s:1172   .progmem.data:0000000000000180 __c.3327
/var/folders/57/dy66zcf543x9s42pt1yfw30r0000gn/T//ccjut009.s:1168   .progmem.data:000000000000016a __c.3330
/var/folders/57/dy66zcf543x9s42pt1yfw30r0000gn/T//ccjut009.s:1164   .progmem.data:0000000000000152 __c.3333
/var/folders/57/dy66zcf543x9s42pt1yfw30r0000gn/T//ccjut009.s:1160   .progmem.data:000000000000013f __c.3336
/var/folders/57/dy66zcf543x9s42pt1yfw30r0000gn/T//ccjut009.s:1156   .progmem.data:000000000000012c __c.3339
/var/folders/57/dy66zcf543x9s42pt1yfw30r0000gn/T//ccjut009.s:1152   .progmem.data:000000000000010e __c.3342
/var/folders/57/dy66zcf543x9s42pt1yfw30r0000gn/T//ccjut009.s:1148   .progmem.data:00000000000000e9 __c.3345
/var/folders/57/dy66zcf543x9s42pt1yfw30r0000gn/T//ccjut009.s:1144   .progmem.data:00000000000000dd __c.3348
/var/folders/57/dy66zcf543x9s42pt1yfw30r0000gn/T//ccjut009.s:1140   .progmem.data:00000000000000c2 __c.3351
/var/folders/57/dy66zcf543x9s42pt1yfw30r0000gn/T//ccjut009.s:1136   .progmem.data:00000000000000b3 __c.3354
/var/folders/57/dy66zcf543x9s42pt1yfw30r0000gn/T//ccjut009.s:1132   .progmem.data:000000000000009f __c.3357
/var/folders/57/dy66zcf543x9s42pt1yfw30r0000gn/T//ccjut009.s:1128   .progmem.data:000000000000008e __c.3360
/var/folders/57/dy66zcf543x9s42pt1yfw30r0000gn/T//ccjut009.s:1124   .progmem.data:000000000000007a __c.3363
/var/folders/57/dy66zcf543x9s42pt1yfw30r0000gn/T//ccjut009.s:1120   .progmem.data:000000000000005a __c.3366
/var/folders/57/dy66zcf543x9s42pt1yfw30r0000gn/T//ccjut009.s:1116   .progmem.data:0000000000000042 __c.3369
/var/folders/57/dy66zcf543x9s42pt1yfw30r0000gn/T//ccjut009.s:1112   .progmem.data:0000000000000027 __c.3372
/var/folders/57/dy66zcf543x9s42pt1yfw30r0000gn/T//ccjut009.s:1108   .progmem.data:0000000000000016 __c.3375
/var/folders/57/dy66zcf543x9s42pt1yfw30r0000gn/T//ccjut009.s:1104   .progmem.data:0000000000000007 __c.3378
/var/folders/57/dy66zcf543x9s42pt1yfw30r0000gn/T//ccjut009.s:1100   .progmem.data:0000000000000000 __c.3381
/var/folders/57/dy66zcf543x9s42pt1yfw30r0000gn/T//ccjut009.s:676    .text:0000000000000146 nrk_error_add
/var/folders/57/dy66zcf543x9s42pt1yfw30r0000gn/T//ccjut009.s:706    .text:000000000000015c nrk_kernel_error_add
/var/folders/57/dy66zcf543x9s42pt1yfw30r0000gn/T//ccjut009.s:731    .text:0000000000000168 pause
/var/folders/57/dy66zcf543x9s42pt1yfw30r0000gn/T//ccjut009.s:783    .text:0000000000000192 blink_dash
/var/folders/57/dy66zcf543x9s42pt1yfw30r0000gn/T//ccjut009.s:821    .text:00000000000001b2 blink_dot
/var/folders/57/dy66zcf543x9s42pt1yfw30r0000gn/T//ccjut009.s:854    .text:00000000000001ca blink_morse_code_error
                            *COM*:0000000000000001 app_timer0_prescale
                            *COM*:0000000000000002 app_timer0_callback
                            *COM*:0000000000000001 _nrk_time_trigger
                            *COM*:0000000000000001 _nrk_prev_timer_val
                            *COM*:0000000000000002 nrk_kernel_stk_ptr
                            *COM*:0000000000000200 nrk_idle_task_stk
                            *COM*:0000000000000004 _nrk_signal_list

UNDEFINED SYMBOLS
nrk_cur_task_TCB
nrk_int_disable
nrk_kprintf
printf
__tablejump2__
__iob
fputc
nrk_spin_wait_us
nrk_led_set
nrk_led_clr
sprintf
__do_copy_data
__do_clear_bss
